Microsoft (R) Macro Assembler Version 14.24.28316.0	    03/09/20 22:04:05
!FinalProject1 (FinalProject1.asm			     Page 1 - 1


				;=-=-=BEGINNING=-=-=-=-=-=-=-=-=-=-=-=-=-=-=-=-=-=-=-=-=-=-=-=-=-=-=80-char=-=-;
				TITLE FinalProject1 (FinalProject1.asm)

				;~TITLE BLOCK~~~~~~~~~~~~~~~~~~~~~~~~~~~~~~~~~~~~~~~~~~~~~~~~~~~~~~~~~~~~~~~~~~;
				; Author:               Lucas Pichette, Sean Sullivan
				; Course/Project ID:    CS271-FinalProject1
				; Description:          This final project is aimed 
				;~~~~~~~~~~~~~~~~~~~~~~~~~~~~~~~~~~~~~~~~~~~~~~~~~~~~~~~~~~~~~~~~~~~~~~~~~~~~~~;



				; Tasks:
				;   1) Display program title and your name. Then get user's name and greet the
				;       user.
				;   ?) Display a goodbye message that includes the user's name and terminates
				;       the program.

				; Requirements:
				;   1) There needs to be ascii art for whatever reason
				;   2) There should be at least one procedure
				;   3) At least 2-deep nested storyline. 

				; Notes:
				;   1) This is a comment. We can communicate big ideas here, or even just
				;		smaller questions.
				;   2) Story setting: Doesn't matter, we just need to have one.s


				INCLUDE Irvine32.inc
			      C ; Include file for Irvine32.lib             (Irvine32.inc)
			      C 
			      C ;OPTION CASEMAP:NONE		; optional: make identifiers case-sensitive
			      C 
			      C INCLUDE SmallWin.inc		; MS-Windows prototypes, structures, and constants
			      C .NOLIST
			      C .LIST
			      C 
			      C INCLUDE VirtualKeys.inc
			      C ; VirtualKeys.inc
			      C .NOLIST
			      C .LIST
			      C 
			      C 
			      C .NOLIST
			      C .LIST
			      C 

				; CONSTANTS
				;==============================================================================;

 = 00000001			MIN             =           1
 = 00000002			MAX             =           2

				;==============================================================================;



 00000000			.data ; BUFFER IN RAM
				;==============================================================================;

 00000000 54 69 74 6C 65	sTitle          BYTE        "Title:     TBD (Final Project 1)",0
	   3A 20 20 20 20
	   20 54 42 44 20
	   28 46 69 6E 61
	   6C 20 50 72 6F
	   6A 65 63 74 20
	   31 29 00
 00000021 41 75 74 68 6F	sAuthor         BYTE        "Author:    Lucas Pichette, Sean Sullivan",0
	   72 3A 20 20 20
	   20 4C 75 63 61
	   73 20 50 69 63
	   68 65 74 74 65
	   2C 20 53 65 61
	   6E 20 53 75 6C
	   6C 69 76 61 6E
	   00
 0000004A 57 68 61 74 27	sPromptForName  BYTE        "What's your name broseph? ",0
	   73 20 79 6F 75
	   72 20 6E 61 6D
	   65 20 62 72 6F
	   73 65 70 68 3F
	   20 00
 00000065 42 61 64 20 49	sBadInput       BYTE        "Bad Input. Retry... ",0
	   6E 70 75 74 2E
	   20 52 65 74 72
	   79 2E 2E 2E 20
	   00
 0000007A 48 65 6C 6C 6F	sGreetings      BYTE        "Hello, ",0
	   2C 20 00
 00000082 47 6F 6F 64 62	sGoodbye        BYTE        "Goodbye, ",0
	   79 65 2C 20 00

 0000008C 57 68 69 63 68	sDecision       BYTE        "Which will you do? ...->] ",0
	   20 77 69 6C 6C
	   20 79 6F 75 20
	   64 6F 3F 20 2E
	   2E 2E 2D 3E 5D
	   20 00

				; 16 pushes for story part 1
				; 5 lines of ascii for story part 1
 000000A7 20 20 20 20 20	sAscii1a        BYTE        "                               |    |",0
	   20 20 20 20 20
	   20 20 20 20 20
	   20 20 20 20 20
	   20 20 20 20 20
	   20 20 20 20 20
	   20 7C 20 20 20
	   20 7C 00
 000000CD 20 20 20 20 20	sAscii1b        BYTE        "      o  /   xxxxxx            |    |",0
	   20 6F 20 20 2F
	   20 20 20 78 78
	   78 78 78 78 20
	   20 20 20 20 20
	   20 20 20 20 20
	   20 7C 20 20 20
	   20 7C 00
 000000F3 20 20 20 20 20	sAscii1c        BYTE        "     -|-/    ======         o /  o /  ",0
	   2D 7C 2D 2F 20
	   20 20 20 3D 3D
	   3D 3D 3D 3D 20
	   20 20 20 20 20
	   20 20 20 6F 20
	   2F 20 20 6F 20
	   2F 20 20 00
 0000011A 20 20 20 6A 3D	sAscii1d        BYTE        "   j====-----\====/        |\x\ |\x\  ",0
	   3D 3D 3D 2D 2D
	   2D 2D 2D 5C 3D
	   3D 3D 3D 2F 20
	   20 20 20 20 20
	   20 20 7C 5C 78
	   5C 20 7C 5C 78
	   5C 20 20 00
 00000141 20 20 20 20 7C	sAscii1e        BYTE        "    |  |    0      0         /\    /\  ",0
	   20 20 7C 20 20
	   20 20 30 20 20
	   20 20 20 20 30
	   20 20 20 20 20
	   20 20 20 20 2F
	   5C 20 20 20 20
	   2F 5C 20 20 00
				; 9 strings for story part 1
 00000169 2E 2E 2E 21 3E	sStory1a        BYTE        "...!>] Thunder cracks across the sky as the highwaymen circle the cart you are held in.",0
	   5D 20 54 68 75
	   6E 64 65 72 20
	   63 72 61 63 6B
	   73 20 61 63 72
	   6F 73 73 20 74
	   68 65 20 73 6B
	   79 20 61 73 20
	   74 68 65 20 68
	   69 67 68 77 61
	   79 6D 65 6E 20
	   63 69 72 63 6C
	   65 20 74 68 65
	   20 63 61 72 74
	   20 79 6F 75 20
	   61 72 65 20 68
	   65 6C 64 20 69
	   6E 2E 00
 000001C1 54 68 65 69 72	sStory1b        BYTE        "Their swords gleam like their smiles, both dripping with anticipation...and is that blood? ",0
	   20 73 77 6F 72
	   64 73 20 67 6C
	   65 61 6D 20 6C
	   69 6B 65 20 74
	   68 65 69 72 20
	   73 6D 69 6C 65
	   73 2C 20 62 6F
	   74 68 20 64 72
	   69 70 70 69 6E
	   67 20 77 69 74
	   68 20 61 6E 74
	   69 63 69 70 61
	   74 69 6F 6E 2E
	   2E 2E 61 6E 64
	   20 69 73 20 74
	   68 61 74 20 62
	   6C 6F 6F 64 3F
	   20 00
 0000021D 54 68 65 20 77	sStory1c        BYTE        "The warden who holds the keys, both literally and figuratively to your escape isn't scared. ",0
	   61 72 64 65 6E
	   20 77 68 6F 20
	   68 6F 6C 64 73
	   20 74 68 65 20
	   6B 65 79 73 2C
	   20 62 6F 74 68
	   20 6C 69 74 65
	   72 61 6C 6C 79
	   20 61 6E 64 20
	   66 69 67 75 72
	   61 74 69 76 65
	   6C 79 20 74 6F
	   20 79 6F 75 72
	   20 65 73 63 61
	   70 65 20 69 73
	   6E 27 74 20 73
	   63 61 72 65 64
	   2E 20 00
 0000027A 54 68 65 20 74	sStory1d        BYTE        "The two mercenaries he's hired just for this circumstance are readying their weapons with silent calculability that reverberates fear. ",0
	   77 6F 20 6D 65
	   72 63 65 6E 61
	   72 69 65 73 20
	   68 65 27 73 20
	   68 69 72 65 64
	   20 6A 75 73 74
	   20 66 6F 72 20
	   74 68 69 73 20
	   63 69 72 63 75
	   6D 73 74 61 6E
	   63 65 20 61 72
	   65 20 72 65 61
	   64 79 69 6E 67
	   20 74 68 65 69
	   72 20 77 65 61
	   70 6F 6E 73 20
	   77 69 74 68 20
	   73 69 6C 65 6E
	   74 20 63 61 6C
	   63 75 6C 61 62
	   69 6C 69 74 79
	   20 74 68 61 74
	   20 72 65 76 65
	   72 62 65 72 61
	   74 65 73 20 66
	   65 61 72 2E 20
	   00
 00000302 54 68 65 20 62	sStory1e        BYTE        "The battle is set and the time for talking is over. You look down. Your shackles are heavy, which could work to your advantage. ",0
	   61 74 74 6C 65
	   20 69 73 20 73
	   65 74 20 61 6E
	   64 20 74 68 65
	   20 74 69 6D 65
	   20 66 6F 72 20
	   74 61 6C 6B 69
	   6E 67 20 69 73
	   20 6F 76 65 72
	   2E 20 59 6F 75
	   20 6C 6F 6F 6B
	   20 64 6F 77 6E
	   2E 20 59 6F 75
	   72 20 73 68 61
	   63 6B 6C 65 73
	   20 61 72 65 20
	   68 65 61 76 79
	   2C 20 77 68 69
	   63 68 20 63 6F
	   75 6C 64 20 77
	   6F 72 6B 20 74
	   6F 20 79 6F 75
	   72 20 61 64 76
	   61 6E 74 61 67
	   65 2E 20 00
 00000383 59 6F 75 20 63	sStory1f        BYTE        "You can see the shadow of a highwayman on the tarp that covers the cart you ride in. ",0
	   61 6E 20 73 65
	   65 20 74 68 65
	   20 73 68 61 64
	   6F 77 20 6F 66
	   20 61 20 68 69
	   67 68 77 61 79
	   6D 61 6E 20 6F
	   6E 20 74 68 65
	   20 74 61 72 70
	   20 74 68 61 74
	   20 63 6F 76 65
	   72 73 20 74 68
	   65 20 63 61 72
	   74 20 79 6F 75
	   20 72 69 64 65
	   20 69 6E 2E 20
	   00
 000003D9 57 69 74 68 20	sStory1g        BYTE        "With any luck at all, you could jump out and surprise him, giving the warden an advantage. ",0
	   61 6E 79 20 6C
	   75 63 6B 20 61
	   74 20 61 6C 6C
	   2C 20 79 6F 75
	   20 63 6F 75 6C
	   64 20 6A 75 6D
	   70 20 6F 75 74
	   20 61 6E 64 20
	   73 75 72 70 72
	   69 73 65 20 68
	   69 6D 2C 20 67
	   69 76 69 6E 67
	   20 74 68 65 20
	   77 61 72 64 65
	   6E 20 61 6E 20
	   61 64 76 61 6E
	   74 61 67 65 2E
	   20 00
 00000435 48 6F 77 65 76	sStory1h        BYTE        "However, both the warden and the mercenaries have their back to you, ",0
	   65 72 2C 20 62
	   6F 74 68 20 74
	   68 65 20 77 61
	   72 64 65 6E 20
	   61 6E 64 20 74
	   68 65 20 6D 65
	   72 63 65 6E 61
	   72 69 65 73 20
	   68 61 76 65 20
	   74 68 65 69 72
	   20 62 61 63 6B
	   20 74 6F 20 79
	   6F 75 2C 20 00
 0000047B 61 6E 64 20 61	sStory1i        BYTE        "and a konniving chap like yourself could be freed by the highwaymen if you gave assistance...",0
	   20 6B 6F 6E 6E
	   69 76 69 6E 67
	   20 63 68 61 70
	   20 6C 69 6B 65
	   20 79 6F 75 72
	   73 65 6C 66 20
	   63 6F 75 6C 64
	   20 62 65 20 66
	   72 65 65 64 20
	   62 79 20 74 68
	   65 20 68 69 67
	   68 77 61 79 6D
	   65 6E 20 69 66
	   20 79 6F 75 20
	   67 61 76 65 20
	   61 73 73 69 73
	   74 61 6E 63 65
	   2E 2E 2E 00
				; 2 prompts for story part 1
 000004D9 2E 2E 2E 3F 3E	sPrompt1a       BYTE        "...?> Protect the Cart",0
	   20 50 72 6F 74
	   65 63 74 20 74
	   68 65 20 43 61
	   72 74 00
 000004F0 2E 2E 2E 3F 3E	sPrompt1b       BYTE        "...?> Ambush the Warden",0
	   20 41 6D 62 75
	   73 68 20 74 68
	   65 20 57 61 72
	   64 65 6E 00

				; 12 pushes for story part 2a
				; 5 lines of ascii for story part 2a
 00000508 20 20 20 20 20	sAscii2aa       BYTE        "                         \\ /                  ",0
	   20 20 20 20 20
	   20 20 20 20 20
	   20 20 20 20 20
	   20 20 20 20 20
	   5C 5C 20 2F 20
	   20 20 20 20 20
	   20 20 20 20 20
	   20 20 20 20 20
	   20 20 00
 00000538 20 20 20 20 20	sAscii2ab       BYTE        "      o  /   xxxxxx       --\-o                ",0
	   20 6F 20 20 2F
	   20 20 20 78 78
	   78 78 78 78 20
	   20 20 20 20 20
	   20 2D 2D 5C 2D
	   6F 20 20 20 20
	   20 20 20 20 20
	   20 20 20 20 20
	   20 20 00
 00000568 20 20 20 20 20	sAscii2ac       BYTE        "     -|-/    ======         /                 >> o   ",0
	   2D 7C 2D 2F 20
	   20 20 20 3D 3D
	   3D 3D 3D 3D 20
	   20 20 20 20 20
	   20 20 20 2F 20
	   20 20 20 20 20
	   20 20 20 20 20
	   20 20 20 20 20
	   20 3E 3E 20 6F
	   20 20 20 00
 0000059E 20 20 20 6A 3D	sAscii2ad       BYTE        "   j====-----\====/            __    //    >>  //x/\  ",0
	   3D 3D 3D 2D 2D
	   2D 2D 2D 5C 3D
	   3D 3D 3D 2F 20
	   20 20 20 20 20
	   20 20 20 20 20
	   20 5F 5F 20 20
	   20 20 2F 2F 20
	   20 20 20 3E 3E
	   20 20 2F 2F 78
	   2F 5C 20 20 00
 000005D5 20 20 20 20 7C	sAscii2ae       BYTE        "    |  |    0      0           __-\x\-o      >> /\  ",0
	   20 20 7C 20 20
	   20 20 30 20 20
	   20 20 20 20 30
	   20 20 20 20 20
	   20 20 20 20 20
	   20 5F 5F 2D 5C
	   78 5C 2D 6F 20
	   20 20 20 20 20
	   3E 3E 20 2F 5C
	   20 20 00
				; 5 strings for story partg 2a
 0000060A 2E 2E 2E 21 3E	sStory2aa       BYTE        "...!> Your resolve hardens. It's time to help the warden and the mercenaries since they are law-abiding citizens.",0
	   20 59 6F 75 72
	   20 72 65 73 6F
	   6C 76 65 20 68
	   61 72 64 65 6E
	   73 2E 20 49 74
	   27 73 20 74 69
	   6D 65 20 74 6F
	   20 68 65 6C 70
	   20 74 68 65 20
	   77 61 72 64 65
	   6E 20 61 6E 64
	   20 74 68 65 20
	   6D 65 72 63 65
	   6E 61 72 69 65
	   73 20 73 69 6E
	   63 65 20 74 68
	   65 79 20 61 72
	   65 20 6C 61 77
	   2D 61 62 69 64
	   69 6E 67 20 63
	   69 74 69 7A 65
	   6E 73 2E 00
 0000067C 57 69 74 68 20	sStory2ab       BYTE        "With the poise of a sickly cat, you launch yourself through the canvas...Directly onto the head of a passing highwayman! ",0
	   74 68 65 20 70
	   6F 69 73 65 20
	   6F 66 20 61 20
	   73 69 63 6B 6C
	   79 20 63 61 74
	   2C 20 79 6F 75
	   20 6C 61 75 6E
	   63 68 20 79 6F
	   75 72 73 65 6C
	   66 20 74 68 72
	   6F 75 67 68 20
	   74 68 65 20 63
	   61 6E 76 61 73
	   2E 2E 2E 44 69
	   72 65 63 74 6C
	   79 20 6F 6E 74
	   6F 20 74 68 65
	   20 68 65 61 64
	   20 6F 66 20 61
	   20 70 61 73 73
	   69 6E 67 20 68
	   69 67 68 77 61
	   79 6D 61 6E 21
	   20 00
 000006F6 57 69 74 68 20	sStory2ac       BYTE        "With the grace of a sickly person still bound in a set of shackles and a modest amount of chains, you conk the highwayman on the head.",0
	   74 68 65 20 67
	   72 61 63 65 20
	   6F 66 20 61 20
	   73 69 63 6B 6C
	   79 20 70 65 72
	   73 6F 6E 20 73
	   74 69 6C 6C 20
	   62 6F 75 6E 64
	   20 69 6E 20 61
	   20 73 65 74 20
	   6F 66 20 73 68
	   61 63 6B 6C 65
	   73 20 61 6E 64
	   20 61 20 6D 6F
	   64 65 73 74 20
	   61 6D 6F 75 6E
	   74 20 6F 66 20
	   63 68 61 69 6E
	   73 2C 20 79 6F
	   75 20 63 6F 6E
	   6B 20 74 68 65
	   20 68 69 67 68
	   77 61 79 6D 61
	   6E 20 6F 6E 20
	   74 68 65 20 68
	   65 61 64 2E 00
 0000077D 54 68 65 20 6C	sStory2ad       BYTE        "The loss of a member is enough to make the highwaymen run away, they relied on numbers and ambushes, a fair fight isn't for them!",0
	   6F 73 73 20 6F
	   66 20 61 20 6D
	   65 6D 62 65 72
	   20 69 73 20 65
	   6E 6F 75 67 68
	   20 74 6F 20 6D
	   61 6B 65 20 74
	   68 65 20 68 69
	   67 68 77 61 79
	   6D 65 6E 20 72
	   75 6E 20 61 77
	   61 79 2C 20 74
	   68 65 79 20 72
	   65 6C 69 65 64
	   20 6F 6E 20 6E
	   75 6D 62 65 72
	   73 20 61 6E 64
	   20 61 6D 62 75
	   73 68 65 73 2C
	   20 61 20 66 61
	   69 72 20 66 69
	   67 68 74 20 69
	   73 6E 27 74 20
	   66 6F 72 20 74
	   68 65 6D 21 00
 000007FF 54 68 65 20 77	sStory2ae       BYTE        "The warden approaches you his face looks surprised, maybe you'll get your freedom? But what if he throws you back in the cart?!",0
	   61 72 64 65 6E
	   20 61 70 70 72
	   6F 61 63 68 65
	   73 20 79 6F 75
	   20 68 69 73 20
	   66 61 63 65 20
	   6C 6F 6F 6B 73
	   20 73 75 72 70
	   72 69 73 65 64
	   2C 20 6D 61 79
	   62 65 20 79 6F
	   75 27 6C 6C 20
	   67 65 74 20 79
	   6F 75 72 20 66
	   72 65 65 64 6F
	   6D 3F 20 42 75
	   74 20 77 68 61
	   74 20 69 66 20
	   68 65 20 74 68
	   72 6F 77 73 20
	   79 6F 75 20 62
	   61 63 6B 20 69
	   6E 20 74 68 65
	   20 63 61 72 74
	   3F 21 00
				; 2 prompts for story part 2a
 0000087F 2E 2E 2E 3F 3E	sPrompt2aa      BYTE        "...?> Steal the key to your shackles",0
	   20 53 74 65 61
	   6C 20 74 68 65
	   20 6B 65 79 20
	   74 6F 20 79 6F
	   75 72 20 73 68
	   61 63 6B 6C 65
	   73 00
 000008A4 2E 2E 2E 3F 3E	sPrompt2ab      BYTE        "...?> Wait and see what happens",0
	   20 57 61 69 74
	   20 61 6E 64 20
	   73 65 65 20 77
	   68 61 74 20 68
	   61 70 70 65 6E
	   73 00

				; 19 pushes for story part 2b
				; 6 lines of ascii for story part 2b
 000008C4 20 20 20 20 20	sAscii2ba       BYTE        "                          o",0
	   20 20 20 20 20
	   20 20 20 20 20
	   20 20 20 20 20
	   20 20 20 20 20
	   20 6F 00
 000008E0 20 20 20 20 20	sAscii2bb       BYTE        "                         -|-                            |    |",0
	   20 20 20 20 20
	   20 20 20 20 20
	   20 20 20 20 20
	   20 20 20 20 20
	   2D 7C 2D 20 20
	   20 20 20 20 20
	   20 20 20 20 20
	   20 20 20 20 20
	   20 20 20 20 20
	   20 20 20 20 20
	   20 7C 20 20 20
	   20 7C 00
 0000091F 20 20 20 20 20	sAscii2bc       BYTE        "                          xxxxxx                        |    |",0
	   20 20 20 20 20
	   20 20 20 20 20
	   20 20 20 20 20
	   20 20 20 20 20
	   20 78 78 78 78
	   78 78 20 20 20
	   20 20 20 20 20
	   20 20 20 20 20
	   20 20 20 20 20
	   20 20 20 20 20
	   20 7C 20 20 20
	   20 7C 00
 0000095E 20 20 6F 20 20	sAscii2bd       BYTE        "  o                       ======        o     o      o /  o /  ",0
	   20 20 20 20 20
	   20 20 20 20 20
	   20 20 20 20 20
	   20 20 20 20 20
	   20 3D 3D 3D 3D
	   3D 3D 20 20 20
	   20 20 20 20 20
	   6F 20 20 20 20
	   20 6F 20 20 20
	   20 20 20 6F 20
	   2F 20 20 6F 20
	   2F 20 20 00
 0000099E 20 5C 78 5C 5F	sAscii2be       BYTE        " \x\___    __   j====-----\====/    __/m/ __/m/      |\x\ |\x\  ",0
	   5F 5F 20 20 20
	   20 5F 5F 20 20
	   20 6A 3D 3D 3D
	   3D 2D 2D 2D 2D
	   2D 5C 3D 3D 3D
	   3D 2F 20 20 20
	   20 5F 5F 2F 6D
	   2F 20 5F 5F 2F
	   6D 2F 20 20 20
	   20 20 20 7C 5C
	   78 5C 20 7C 5C
	   78 5C 20 20 00
 000009DF 20 2F 5C 20 20	sAscii2bf       BYTE        " /\    o/--__     |  |    0     0      /\    /\        /\    /\  ",0
	   20 20 6F 2F 2D
	   2D 5F 5F 20 20
	   20 20 20 7C 20
	   20 7C 20 20 20
	   20 30 20 20 20
	   20 20 30 20 20
	   20 20 20 20 2F
	   5C 20 20 20 20
	   2F 5C 20 20 20
	   20 20 20 20 20
	   2F 5C 20 20 20
	   20 2F 5C 20 20
	   00
				; 11 strings for story part 2b
 00000A21 2E 2E 2E 21 3E	sStory2ba       BYTE        "...!> An evil smile cracks across your dirty face.",0
	   20 41 6E 20 65
	   76 69 6C 20 73
	   6D 69 6C 65 20
	   63 72 61 63 6B
	   73 20 61 63 72
	   6F 73 73 20 79
	   6F 75 72 20 64
	   69 72 74 79 20
	   66 61 63 65 2E
	   00
 00000A54 20 49 74 27 73	sStory2bb       BYTE        " It's payback time against the system that put you in these chains.",0
	   20 70 61 79 62
	   61 63 6B 20 74
	   69 6D 65 20 61
	   67 61 69 6E 73
	   74 20 74 68 65
	   20 73 79 73 74
	   65 6D 20 74 68
	   61 74 20 70 75
	   74 20 79 6F 75
	   20 69 6E 20 74
	   68 65 73 65 20
	   63 68 61 69 6E
	   73 2E 00
 00000A98 57 69 74 68 20	sStory2bc       BYTE        "With deviant glee you creep towards the warden, the dragging of your chains on the cart floor is masked by the initial skirmishes of the highwaymen and the mercenaries, the warden completely engrossed in the battle.",0
	   64 65 76 69 61
	   6E 74 20 67 6C
	   65 65 20 79 6F
	   75 20 63 72 65
	   65 70 20 74 6F
	   77 61 72 64 73
	   20 74 68 65 20
	   77 61 72 64 65
	   6E 2C 20 74 68
	   65 20 64 72 61
	   67 67 69 6E 67
	   20 6F 66 20 79
	   6F 75 72 20 63
	   68 61 69 6E 73
	   20 6F 6E 20 74
	   68 65 20 63 61
	   72 74 20 66 6C
	   6F 6F 72 20 69
	   73 20 6D 61 73
	   6B 65 64 20 62
	   79 20 74 68 65
	   20 69 6E 69 74
	   69 61 6C 20 73
	   6B 69 72 6D 69
	   73 68 65 73 20
	   6F 66 20 74 68
	   65 20 68 69 67
	   68 77 61 79 6D
	   65 6E 20 61 6E
	   64 20 74 68 65
	   20 6D 65 72 63
	   65 6E 61 72 69
	   65 73 2C 20 74
	   68 65 20 77 61
	   72 64 65 6E 20
	   63 6F 6D 70 6C
	   65 74 65 6C 79
	   20 65 6E 67 72
	   6F 73 73 65 64
	   20 69 6E 20 74
	   68 65 20 62 61
	   74 74 6C 65 2E
	   00
 00000B70 20 53 75 64 64	sStory2bd       BYTE        " Suddenly from the corner of your eye, you see a highwayman, probably the one the saw through the canvas cover of the cart.",0
	   65 6E 6C 79 20
	   66 72 6F 6D 20
	   74 68 65 20 63
	   6F 72 6E 65 72
	   20 6F 66 20 79
	   6F 75 72 20 65
	   79 65 2C 20 79
	   6F 75 20 73 65
	   65 20 61 20 68
	   69 67 68 77 61
	   79 6D 61 6E 2C
	   20 70 72 6F 62
	   61 62 6C 79 20
	   74 68 65 20 6F
	   6E 65 20 74 68
	   65 20 73 61 77
	   20 74 68 72 6F
	   75 67 68 20 74
	   68 65 20 63 61
	   6E 76 61 73 20
	   63 6F 76 65 72
	   20 6F 66 20 74
	   68 65 20 63 61
	   72 74 2E 00
 00000BEC 20 59 6F 75 20	sStory2be       BYTE        " You make eye contact and there is an understanding between you and him.",0
	   6D 61 6B 65 20
	   65 79 65 20 63
	   6F 6E 74 61 63
	   74 20 61 6E 64
	   20 74 68 65 72
	   65 20 69 73 20
	   61 6E 20 75 6E
	   64 65 72 73 74
	   61 6E 64 69 6E
	   67 20 62 65 74
	   77 65 65 6E 20
	   79 6F 75 20 61
	   6E 64 20 68 69
	   6D 2E 00
 00000C35 20 43 61 72 65	sStory2bf       BYTE        " Carefully you get closer and closer to the warden. When you are within range.",0
	   66 75 6C 6C 79
	   20 79 6F 75 20
	   67 65 74 20 63
	   6C 6F 73 65 72
	   20 61 6E 64 20
	   63 6C 6F 73 65
	   72 20 74 6F 20
	   74 68 65 20 77
	   61 72 64 65 6E
	   2E 20 57 68 65
	   6E 20 79 6F 75
	   20 61 72 65 20
	   77 69 74 68 69
	   6E 20 72 61 6E
	   67 65 2E 00
 00000C84 20 59 6F 75 20	sStory2bg       BYTE        " You jam your shoulder into the wardens back pushing him off the front seat of the cart and directly to the feet of the highwayman you made eye contact with.",0
	   6A 61 6D 20 79
	   6F 75 72 20 73
	   68 6F 75 6C 64
	   65 72 20 69 6E
	   74 6F 20 74 68
	   65 20 77 61 72
	   64 65 6E 73 20
	   62 61 63 6B 20
	   70 75 73 68 69
	   6E 67 20 68 69
	   6D 20 6F 66 66
	   20 74 68 65 20
	   66 72 6F 6E 74
	   20 73 65 61 74
	   20 6F 66 20 74
	   68 65 20 63 61
	   72 74 20 61 6E
	   64 20 64 69 72
	   65 63 74 6C 79
	   20 74 6F 20 74
	   68 65 20 66 65
	   65 74 20 6F 66
	   20 74 68 65 20
	   68 69 67 68 77
	   61 79 6D 61 6E
	   20 79 6F 75 20
	   6D 61 64 65 20
	   65 79 65 20 63
	   6F 6E 74 61 63
	   74 20 77 69 74
	   68 2E 00
 00000D22 20 54 68 65 20	sStory2bh       BYTE        " The warden's death is painless and swift, not making a sound.",0
	   77 61 72 64 65
	   6E 27 73 20 64
	   65 61 74 68 20
	   69 73 20 70 61
	   69 6E 6C 65 73
	   73 20 61 6E 64
	   20 73 77 69 66
	   74 2C 20 6E 6F
	   74 20 6D 61 6B
	   69 6E 67 20 61
	   20 73 6F 75 6E
	   64 2E 00
 00000D61 20 54 68 65 20	sStory2bi       BYTE        " The mercenaries are still fighting, not seeing the highwayman ambush the warden. They are completely exposed to an ambush.",0
	   6D 65 72 63 65
	   6E 61 72 69 65
	   73 20 61 72 65
	   20 73 74 69 6C
	   6C 20 66 69 67
	   68 74 69 6E 67
	   2C 20 6E 6F 74
	   20 73 65 65 69
	   6E 67 20 74 68
	   65 20 68 69 67
	   68 77 61 79 6D
	   61 6E 20 61 6D
	   62 75 73 68 20
	   74 68 65 20 77
	   61 72 64 65 6E
	   2E 20 54 68 65
	   79 20 61 72 65
	   20 63 6F 6D 70
	   6C 65 74 65 6C
	   79 20 65 78 70
	   6F 73 65 64 20
	   74 6F 20 61 6E
	   20 61 6D 62 75
	   73 68 2E 00
 00000DDD 20 59 6F 75 20	sStory2bj       BYTE        " You could yell out to them, warning them of the danger. After all, they didn't see you kill the warden.",0
	   63 6F 75 6C 64
	   20 79 65 6C 6C
	   20 6F 75 74 20
	   74 6F 20 74 68
	   65 6D 2C 20 77
	   61 72 6E 69 6E
	   67 20 74 68 65
	   6D 20 6F 66 20
	   74 68 65 20 64
	   61 6E 67 65 72
	   2E 20 41 66 74
	   65 72 20 61 6C
	   6C 2C 20 74 68
	   65 79 20 64 69
	   64 6E 27 74 20
	   73 65 65 20 79
	   6F 75 20 6B 69
	   6C 6C 20 74 68
	   65 20 77 61 72
	   64 65 6E 2E 00
 00000E46 20 4F 52 2C 20	sStory2bk       BYTE        " OR, you could remain silent and watch the battle conclude.",0
	   79 6F 75 20 63
	   6F 75 6C 64 20
	   72 65 6D 61 69
	   6E 20 73 69 6C
	   65 6E 74 20 61
	   6E 64 20 77 61
	   74 63 68 20 74
	   68 65 20 62 61
	   74 74 6C 65 20
	   63 6F 6E 63 6C
	   75 64 65 2E 00
				; 2 prompts for story part 2b
 00000E82 2E 2E 2E 3F 3E	sPrompt2ba      BYTE        "...?> Warn the Mercenaries",0
	   20 57 61 72 6E
	   20 74 68 65 20
	   4D 65 72 63 65
	   6E 61 72 69 65
	   73 00
 00000E9D 2E 2E 2E 3F 3E	sPrompt2bb      BYTE        "...?> Shut Your Mouth",0
	   20 53 68 75 74
	   20 59 6F 75 72
	   20 4D 6F 75 74
	   68 00

				; 14 pushes for story part 3a
				; 4 lines of ascii for story part 3a
 00000EB3 20 20 20 20 20	sAscii3aa       BYTE        "      o      xxxxxx <<<<",0
	   20 6F 20 20 20
	   20 20 20 78 78
	   78 78 78 78 20
	   3C 3C 3C 3C 00
 00000ECC 20 20 20 20 20	sAscii3ab       BYTE        "     -|-     =k o = <<<<<<<",0
	   2D 7C 2D 20 20
	   20 20 20 3D 6B
	   20 6F 20 3D 20
	   3C 3C 3C 3C 3C
	   3C 3C 00
 00000EE8 20 20 20 6A 3D	sAscii3ac       BYTE        "   j====-----\====/ <<<<<<<<<",0
	   3D 3D 3D 2D 2D
	   2D 2D 2D 5C 3D
	   3D 3D 3D 2F 20
	   3C 3C 3C 3C 3C
	   3C 3C 3C 3C 00
 00000F06 20 20 20 20 7C	sAscii3ad       BYTE        "    |  |    0      0  <<<     ",0
	   20 20 7C 20 20
	   20 20 30 20 20
	   20 20 20 20 30
	   20 20 3C 3C 3C
	   20 20 20 20 20
	   00
				; 8 strings for story part 3a
 00000F25 2E 2E 2E 21 3E	sStory3aa       BYTE        "...!> You decide that you can't trust the warden. He approaches you and begins to thank you, however, you're not really listening.",0
	   20 59 6F 75 20
	   64 65 63 69 64
	   65 20 74 68 61
	   74 20 79 6F 75
	   20 63 61 6E 27
	   74 20 74 72 75
	   73 74 20 74 68
	   65 20 77 61 72
	   64 65 6E 2E 20
	   48 65 20 61 70
	   70 72 6F 61 63
	   68 65 73 20 79
	   6F 75 20 61 6E
	   64 20 62 65 67
	   69 6E 73 20 74
	   6F 20 74 68 61
	   6E 6B 20 79 6F
	   75 2C 20 68 6F
	   77 65 76 65 72
	   2C 20 79 6F 75
	   27 72 65 20 6E
	   6F 74 20 72 65
	   61 6C 6C 79 20
	   6C 69 73 74 65
	   6E 69 6E 67 2E
	   00
 00000FA8 20 46 65 69 67	sStory3ab       BYTE        " Feigning fatigue, you fall into the warden, grabbing the key and hiding it before you hit the floor. The mercenaries tense but the warden wave them off.",0
	   6E 69 6E 67 20
	   66 61 74 69 67
	   75 65 2C 20 79
	   6F 75 20 66 61
	   6C 6C 20 69 6E
	   74 6F 20 74 68
	   65 20 77 61 72
	   64 65 6E 2C 20
	   67 72 61 62 62
	   69 6E 67 20 74
	   68 65 20 6B 65
	   79 20 61 6E 64
	   20 68 69 64 69
	   6E 67 20 69 74
	   20 62 65 66 6F
	   72 65 20 79 6F
	   75 20 68 69 74
	   20 74 68 65 20
	   66 6C 6F 6F 72
	   2E 20 54 68 65
	   20 6D 65 72 63
	   65 6E 61 72 69
	   65 73 20 74 65
	   6E 73 65 20 62
	   75 74 20 74 68
	   65 20 77 61 72
	   64 65 6E 20 77
	   61 76 65 20 74
	   68 65 6D 20 6F
	   66 66 2E 00
 00001042 20 54 68 65 20	sStory3ac       BYTE        " The warden carries you back into the depths of the cart.",0
	   77 61 72 64 65
	   6E 20 63 61 72
	   72 69 65 73 20
	   79 6F 75 20 62
	   61 63 6B 20 69
	   6E 74 6F 20 74
	   68 65 20 64 65
	   70 74 68 73 20
	   6F 66 20 74 68
	   65 20 63 61 72
	   74 2E 00
 0000107C 20 54 68 65 20	sStory3ad       BYTE        " The journey to your prison is resumed, but this time you have a key to your shackles.",0
	   6A 6F 75 72 6E
	   65 79 20 74 6F
	   20 79 6F 75 72
	   20 70 72 69 73
	   6F 6E 20 69 73
	   20 72 65 73 75
	   6D 65 64 2C 20
	   62 75 74 20 74
	   68 69 73 20 74
	   69 6D 65 20 79
	   6F 75 20 68 61
	   76 65 20 61 20
	   6B 65 79 20 74
	   6F 20 79 6F 75
	   72 20 73 68 61
	   63 6B 6C 65 73
	   2E 00
 000010D3 41 73 20 79 6F	sStory3ae       BYTE        "As you are bumping along nite falls and the warden stops the cart for the night.",0
	   75 20 61 72 65
	   20 62 75 6D 70
	   69 6E 67 20 61
	   6C 6F 6E 67 20
	   6E 69 74 65 20
	   66 61 6C 6C 73
	   20 61 6E 64 20
	   74 68 65 20 77
	   61 72 64 65 6E
	   20 73 74 6F 70
	   73 20 74 68 65
	   20 63 61 72 74
	   20 66 6F 72 20
	   74 68 65 20 6E
	   69 67 68 74 2E
	   00
 00001124 20 41 20 6D 65	sStory3af       BYTE        " A mercenary is put on guard but they quickly fall asleep.",0
	   72 63 65 6E 61
	   72 79 20 69 73
	   20 70 75 74 20
	   6F 6E 20 67 75
	   61 72 64 20 62
	   75 74 20 74 68
	   65 79 20 71 75
	   69 63 6B 6C 79
	   20 66 61 6C 6C
	   20 61 73 6C 65
	   65 70 2E 00
 0000115F 20 54 68 69 73	sStory3ag       BYTE        " This could be a chance to excape.",0
	   20 63 6F 75 6C
	   64 20 62 65 20
	   61 20 63 68 61
	   6E 63 65 20 74
	   6F 20 65 78 63
	   61 70 65 2E 00
 00001182 20 4F 52 20 79	sStory3ah       BYTE        " OR you could stay where you are and wait for a better opportunity.",0
	   6F 75 20 63 6F
	   75 6C 64 20 73
	   74 61 79 20 77
	   68 65 72 65 20
	   79 6F 75 20 61
	   72 65 20 61 6E
	   64 20 77 61 69
	   74 20 66 6F 72
	   20 61 20 62 65
	   74 74 65 72 20
	   6F 70 70 6F 72
	   74 75 6E 69 74
	   79 2E 00
				; 2 prompts for story part 3a
 000011C6 2E 2E 2E 3F 3E	sPrompt3aa      BYTE        "...?> Shuffle into Woods",0
	   20 53 68 75 66
	   66 6C 65 20 69
	   6E 74 6F 20 57
	   6F 6F 64 73 00
 000011DF 2E 2E 2E 3F 3E	sPrompt3ab      BYTE        "...?> Wait for Morning",0
	   20 57 61 69 74
	   20 66 6F 72 20
	   4D 6F 72 6E 69
	   6E 67 00

				; 12 pushes for story part 3b
				; 4 lines of ascii for story part 3b
				; !!! USES SAME ASCII AS 3A
				; 10 strings for story part 3b
 000011F6 2E 2E 2E 21 3E	sStory3ba       BYTE        "...!> You push the thievish thought of stealing the key to your shackles out of your head.",0
	   20 59 6F 75 20
	   70 75 73 68 20
	   74 68 65 20 74
	   68 69 65 76 69
	   73 68 20 74 68
	   6F 75 67 68 74
	   20 6F 66 20 73
	   74 65 61 6C 69
	   6E 67 20 74 68
	   65 20 6B 65 79
	   20 74 6F 20 79
	   6F 75 72 20 73
	   68 61 63 6B 6C
	   65 73 20 6F 75
	   74 20 6F 66 20
	   79 6F 75 72 20
	   68 65 61 64 2E
	   00
 00001251 41 66 74 65 72	sStory3bb       BYTE        "After all, that's what got you here in the first place!",0
	   20 61 6C 6C 2C
	   20 74 68 61 74
	   27 73 20 77 68
	   61 74 20 67 6F
	   74 20 79 6F 75
	   20 68 65 72 65
	   20 69 6E 20 74
	   68 65 20 66 69
	   72 73 74 20 70
	   6C 61 63 65 21
	   00
 00001289 54 68 65 20 77	sStory3bc       BYTE        "The warden approaches you and thanks to you for your assistance.",0
	   61 72 64 65 6E
	   20 61 70 70 72
	   6F 61 63 68 65
	   73 20 79 6F 75
	   20 61 6E 64 20
	   74 68 61 6E 6B
	   73 20 74 6F 20
	   79 6F 75 20 66
	   6F 72 20 79 6F
	   75 72 20 61 73
	   73 69 73 74 61
	   6E 63 65 2E 00
 000012CA 48 65 20 63 68	sStory3bd       BYTE        "He checks your shackles, loosens them a tad (not enough to escape but enough to be more comfortable).",0
	   65 63 6B 73 20
	   79 6F 75 72 20
	   73 68 61 63 6B
	   6C 65 73 2C 20
	   6C 6F 6F 73 65
	   6E 73 20 74 68
	   65 6D 20 61 20
	   74 61 64 20 28
	   6E 6F 74 20 65
	   6E 6F 75 67 68
	   20 74 6F 20 65
	   73 63 61 70 65
	   20 62 75 74 20
	   65 6E 6F 75 67
	   68 20 74 6F 20
	   62 65 20 6D 6F
	   72 65 20 63 6F
	   6D 66 6F 72 74
	   61 62 6C 65 29
	   2E 00
 00001330 48 65 20 67 69	sStory3be       BYTE        "He gives you a nod and forces his horse to keep taking the cart towards your prison. ",0
	   76 65 73 20 79
	   6F 75 20 61 20
	   6E 6F 64 20 61
	   6E 64 20 66 6F
	   72 63 65 73 20
	   68 69 73 20 68
	   6F 72 73 65 20
	   74 6F 20 6B 65
	   65 70 20 74 61
	   6B 69 6E 67 20
	   74 68 65 20 63
	   61 72 74 20 74
	   6F 77 61 72 64
	   73 20 79 6F 75
	   72 20 70 72 69
	   73 6F 6E 2E 20
	   00
 00001386 59 6F 75 20 61	sStory3bf       BYTE        "You are carried for many hours down a dirt path and the scenery begins to turn into a deep forest.",0
	   72 65 20 63 61
	   72 72 69 65 64
	   20 66 6F 72 20
	   6D 61 6E 79 20
	   68 6F 75 72 73
	   20 64 6F 77 6E
	   20 61 20 64 69
	   72 74 20 70 61
	   74 68 20 61 6E
	   64 20 74 68 65
	   20 73 63 65 6E
	   65 72 79 20 62
	   65 67 69 6E 73
	   20 74 6F 20 74
	   75 72 6E 20 69
	   6E 74 6F 20 61
	   20 64 65 65 70
	   20 66 6F 72 65
	   73 74 2E 00
 000013E9 20 41 66 74 65	sStory3bg       BYTE        " After a while, the warden decides to settle for the night. Hours pass and eventually the warden decides to go to sleep.",0
	   72 20 61 20 77
	   68 69 6C 65 2C
	   20 74 68 65 20
	   77 61 72 64 65
	   6E 20 64 65 63
	   69 64 65 73 20
	   74 6F 20 73 65
	   74 74 6C 65 20
	   66 6F 72 20 74
	   68 65 20 6E 69
	   67 68 74 2E 20
	   48 6F 75 72 73
	   20 70 61 73 73
	   20 61 6E 64 20
	   65 76 65 6E 74
	   75 61 6C 6C 79
	   20 74 68 65 20
	   77 61 72 64 65
	   6E 20 64 65 63
	   69 64 65 73 20
	   74 6F 20 67 6F
	   20 74 6F 20 73
	   6C 65 65 70 2E
	   00
 00001462 20 54 68 69 73	sStory3bh       BYTE        " This time, however, he forgets to assign a guard for night watch! This could be your chance to escape.",0
	   20 74 69 6D 65
	   2C 20 68 6F 77
	   65 76 65 72 2C
	   20 68 65 20 66
	   6F 72 67 65 74
	   73 20 74 6F 20
	   61 73 73 69 67
	   6E 20 61 20 67
	   75 61 72 64 20
	   66 6F 72 20 6E
	   69 67 68 74 20
	   77 61 74 63 68
	   21 20 54 68 69
	   73 20 63 6F 75
	   6C 64 20 62 65
	   20 79 6F 75 72
	   20 63 68 61 6E
	   63 65 20 74 6F
	   20 65 73 63 61
	   70 65 2E 00
 000014CA 20 57 69 74 68	sStory3bi       BYTE        " With no night watchman, you can attempt to steal the key to your shackles from the sleeping warden, however, he might wake up.",0
	   20 6E 6F 20 6E
	   69 67 68 74 20
	   77 61 74 63 68
	   6D 61 6E 2C 20
	   79 6F 75 20 63
	   61 6E 20 61 74
	   74 65 6D 70 74
	   20 74 6F 20 73
	   74 65 61 6C 20
	   74 68 65 20 6B
	   65 79 20 74 6F
	   20 79 6F 75 72
	   20 73 68 61 63
	   6B 6C 65 73 20
	   66 72 6F 6D 20
	   74 68 65 20 73
	   6C 65 65 70 69
	   6E 67 20 77 61
	   72 64 65 6E 2C
	   20 68 6F 77 65
	   76 65 72 2C 20
	   68 65 20 6D 69
	   67 68 74 20 77
	   61 6B 65 20 75
	   70 2E 00
 0000154A 20 59 6F 75 20	sStory3bj       BYTE        " You could also just shuffle into the forest, but much louder and slower.",0
	   63 6F 75 6C 64
	   20 61 6C 73 6F
	   20 6A 75 73 74
	   20 73 68 75 66
	   66 6C 65 20 69
	   6E 74 6F 20 74
	   68 65 20 66 6F
	   72 65 73 74 2C
	   20 62 75 74 20
	   6D 75 63 68 20
	   6C 6F 75 64 65
	   72 20 61 6E 64
	   20 73 6C 6F 77
	   65 72 2E 00
				; 2 prompts for story part 3b
 00001594 2E 2E 2E 3F 3E	sPrompt3ba      BYTE        "...?> Try to Steal the Shackles Key from the Sleeping Warden",0
	   20 54 72 79 20
	   74 6F 20 53 74
	   65 61 6C 20 74
	   68 65 20 53 68
	   61 63 6B 6C 65
	   73 20 4B 65 79
	   20 66 72 6F 6D
	   20 74 68 65 20
	   53 6C 65 65 70
	   69 6E 67 20 57
	   61 72 64 65 6E
	   00
 000015D1 2E 2E 2E 3F 3E	sPrompt3bb      BYTE        "...?> Shuffle into the Woods",0
	   20 53 68 75 66
	   66 6C 65 20 69
	   6E 74 6F 20 74
	   68 65 20 57 6F
	   6F 64 73 00

				; 22 pushes for story part 3c
				; 11 lines of ascii for story part 3c
 000015EE 20 20 58 20 20	sAscii3ca       BYTE        "  X           XX",0
	   20 20 20 20 20
	   20 20 20 20 58
	   58 00
 000015FF 20 20 58 58 20	sAscii3cb       BYTE        "  XX        XXX",0
	   20 20 20 20 20
	   20 20 58 58 58
	   00
 0000160F 2B 2D 2D 58 58	sAscii3cc       BYTE        "+--XXX----XXX----+",0
	   58 2D 2D 2D 2D
	   58 58 58 2D 2D
	   2D 2D 2B 00
 00001622 7C 20 20 20 20	sAscii3cd       BYTE        "|       XXX      |",0
	   20 20 20 58 58
	   58 20 20 20 20
	   20 20 7C 00
 00001635 7C 20 20 20 58	sAscii3ce       BYTE        "|   X       X    |",0
	   20 20 20 20 20
	   20 20 58 20 20
	   20 20 7C 00
 00001648 7C 20 20 20 58	sAscii3cf       BYTE        "|   XX      X    |",0
	   58 20 20 20 20
	   20 20 58 20 20
	   20 20 7C 00
 0000165B 7C 20 20 20 20	sAscii3cg       BYTE        "|    X      X    |",0
	   58 20 20 20 20
	   20 20 58 20 20
	   20 20 7C 00
 0000166E 7C 20 20 20 20	sAscii3ch       BYTE        "|                |",0
	   20 20 20 20 20
	   20 20 20 20 20
	   20 20 7C 00
 00001681 7C 20 20 20 20	sAscii3ci       BYTE        "|       XXXXXX   |",0
	   20 20 20 58 58
	   58 58 58 58 20
	   20 20 7C 00
 00001694 7C 20 20 20 20	sAscii3cj       BYTE        "|    XXXX     XX |",0
	   58 58 58 58 20
	   20 20 20 20 58
	   58 20 7C 00
 000016A7 2B 2D 2D 2D 2D	sAscii3ck       BYTE        "+----------------+",0
	   2D 2D 2D 2D 2D
	   2D 2D 2D 2D 2D
	   2D 2D 2B 00
				; 9 strings for story part 3c
 000016BA 2E 2E 2E 21 3E	sStory3ca       BYTE        "...!> You decide you have done enough damage to human lives and yell out to warn the mercenaries.",0
	   20 59 6F 75 20
	   64 65 63 69 64
	   65 20 79 6F 75
	   20 68 61 76 65
	   20 64 6F 6E 65
	   20 65 6E 6F 75
	   67 68 20 64 61
	   6D 61 67 65 20
	   74 6F 20 68 75
	   6D 61 6E 20 6C
	   69 76 65 73 20
	   61 6E 64 20 79
	   65 6C 6C 20 6F
	   75 74 20 74 6F
	   20 77 61 72 6E
	   20 74 68 65 20
	   6D 65 72 63 65
	   6E 61 72 69 65
	   73 2E 00
 0000171C 59 6F 75 20 6D	sStory3cb       BYTE        "You muster all of your sickly strength to shout: run away! at the mercenaries.",0
	   75 73 74 65 72
	   20 61 6C 6C 20
	   6F 66 20 79 6F
	   75 72 20 73 69
	   63 6B 6C 79 20
	   73 74 72 65 6E
	   67 74 68 20 74
	   6F 20 73 68 6F
	   75 74 3A 20 72
	   75 6E 20 61 77
	   61 79 21 20 61
	   74 20 74 68 65
	   20 6D 65 72 63
	   65 6E 61 72 69
	   65 73 2E 00
 0000176B 54 68 65 79 20	sStory3cc       BYTE        "They glance back form their battles and see a warden collapsed on the ground, you stand where he stood.",0
	   67 6C 61 6E 63
	   65 20 62 61 63
	   6B 20 66 6F 72
	   6D 20 74 68 65
	   69 72 20 62 61
	   74 74 6C 65 73
	   20 61 6E 64 20
	   73 65 65 20 61
	   20 77 61 72 64
	   65 6E 20 63 6F
	   6C 6C 61 70 73
	   65 64 20 6F 6E
	   20 74 68 65 20
	   67 72 6F 75 6E
	   64 2C 20 79 6F
	   75 20 73 74 61
	   6E 64 20 77 68
	   65 72 65 20 68
	   65 20 73 74 6F
	   6F 64 2E 00
 000017D3 49 74 20 64 6F	sStory3cd       BYTE        "It doesn't take a genius to understand what happened, but the mercs are still thankful.",0
	   65 73 6E 27 74
	   20 74 61 6B 65
	   20 61 20 67 65
	   6E 69 75 73 20
	   74 6F 20 75 6E
	   64 65 72 73 74
	   61 6E 64 20 77
	   68 61 74 20 68
	   61 70 70 65 6E
	   65 64 2C 20 62
	   75 74 20 74 68
	   65 20 6D 65 72
	   63 73 20 61 72
	   65 20 73 74 69
	   6C 6C 20 74 68
	   61 6E 6B 66 75
	   6C 2E 00
 0000182B 54 68 65 79 20	sStory3ce       BYTE        "They run off into the woods.",0
	   72 75 6E 20 6F
	   66 66 20 69 6E
	   74 6F 20 74 68
	   65 20 77 6F 6F
	   64 73 2E 00
 00001848 49 74 20 6C 6F	sStory3cf       BYTE        "It looks like the highwayman who assisted in killing the warden is dripping with rage.",0
	   6F 6B 73 20 6C
	   69 6B 65 20 74
	   68 65 20 68 69
	   67 68 77 61 79
	   6D 61 6E 20 77
	   68 6F 20 61 73
	   73 69 73 74 65
	   64 20 69 6E 20
	   6B 69 6C 6C 69
	   6E 67 20 74 68
	   65 20 77 61 72
	   64 65 6E 20 69
	   73 20 64 72 69
	   70 70 69 6E 67
	   20 77 69 74 68
	   20 72 61 67 65
	   2E 00
 0000189F 48 65 20 69 73	sStory3cg       BYTE        "He is walking towards you. ",0
	   20 77 61 6C 6B
	   69 6E 67 20 74
	   6F 77 61 72 64
	   73 20 79 6F 75
	   2E 20 00
 000018BB 48 65 20 6C 6F	sStory3ch       BYTE        "He looks very angry.",0
	   6F 6B 73 20 76
	   65 72 79 20 61
	   6E 67 72 79 2E
	   00
 000018D0 49 74 20 6C 6F	sStory3ci       BYTE        "It looks like you only have two options since fighting is out of the questions.",0
	   6F 6B 73 20 6C
	   69 6B 65 20 79
	   6F 75 20 6F 6E
	   6C 79 20 68 61
	   76 65 20 74 77
	   6F 20 6F 70 74
	   69 6F 6E 73 20
	   73 69 6E 63 65
	   20 66 69 67 68
	   74 69 6E 67 20
	   69 73 20 6F 75
	   74 20 6F 66 20
	   74 68 65 20 71
	   75 65 73 74 69
	   6F 6E 73 2E 00
				; 2 prompts for story part 3c
 00001920 2E 2E 2E 3F 3E	sPrompt3ca      BYTE        "...?> Run Away in Your Shackles",0
	   20 52 75 6E 20
	   41 77 61 79 20
	   69 6E 20 59 6F
	   75 72 20 53 68
	   61 63 6B 6C 65
	   73 00
 00001940 2E 2E 2E 3F 3E	sPrompt3cb      BYTE        "...?> Wait for Him to Reach You",0
	   20 57 61 69 74
	   20 66 6F 72 20
	   48 69 6D 20 74
	   6F 20 52 65 61
	   63 68 20 59 6F
	   75 00

				; x pushes for story part 3d
				; 12 lines of ascii for story part 3d
 00001960 2B 2D 2D 2D 2D	sAscii3da       BYTE        "+-------------------+",0
	   2D 2D 2D 2D 2D
	   2D 2D 2D 2D 2D
	   2D 2D 2D 2D 2D
	   2B 00
 00001976 7C 20 20 20 20	sAscii3db       BYTE        "|                   |",0
	   20 20 20 20 20
	   20 20 20 20 20
	   20 20 20 20 20
	   7C 00
 0000198C 7C 20 20 20 20	sAscii3dc       BYTE        "|                   |",0
	   20 20 20 20 20
	   20 20 20 20 20
	   20 20 20 20 20
	   7C 00
 000019A2 7C 20 20 20 20	sAscii3dd       BYTE        "|    XX         XX  |",0
	   58 58 20 20 20
	   20 20 20 20 20
	   20 58 58 20 20
	   7C 00
 000019B8 7C 20 20 20 58	sAscii3de       BYTE        "|   XXXX       XXXX |",0
	   58 58 58 20 20
	   20 20 20 20 20
	   58 58 58 58 20
	   7C 00
 000019CE 7C 20 20 20 20	sAscii3df       BYTE        "|                   |",0
	   20 20 20 20 20
	   20 20 20 20 20
	   20 20 20 20 20
	   7C 00
 000019E4 7C 20 20 20 20	sAscii3dg       BYTE        "|                   |",0
	   20 20 20 20 20
	   20 20 20 20 20
	   20 20 20 20 20
	   7C 00
 000019FA 7C 20 20 20 20	sAscii3dh       BYTE        "|    XX          X  |",0
	   58 58 20 20 20
	   20 20 20 20 20
	   20 20 58 20 20
	   7C 00
 00001A10 7C 20 20 20 20	sAscii3di       BYTE        "|     XXXX     XX   |",0
	   20 58 58 58 58
	   20 20 20 20 20
	   58 58 20 20 20
	   7C 00
 00001A26 7C 20 20 20 20	sAscii3dj       BYTE        "|         XXXXXX    |",0
	   20 20 20 20 20
	   58 58 58 58 58
	   58 20 20 20 20
	   7C 00
 00001A3C 7C 20 20 20 20	sAscii3dk       BYTE        "|                   |",0
	   20 20 20 20 20
	   20 20 20 20 20
	   20 20 20 20 20
	   7C 00
 00001A52 2B 2D 2D 2D 2D	sAscii3dl       BYTE        "+-------------------+",0
	   2D 2D 2D 2D 2D
	   2D 2D 2D 2D 2D
	   2D 2D 2D 2D 2D
	   2B 00
				; x strings for story part 3d
 00001A68 2E 2E 2E 21 3E	sStory3da       BYTE        "...!> If you're going to be bad might as well be the worst right?",0
	   20 49 66 20 79
	   6F 75 27 72 65
	   20 67 6F 69 6E
	   67 20 74 6F 20
	   62 65 20 62 61
	   64 20 6D 69 67
	   68 74 20 61 73
	   20 77 65 6C 6C
	   20 62 65 20 74
	   68 65 20 77 6F
	   72 73 74 20 72
	   69 67 68 74 3F
	   00
 00001AAA 59 6F 75 20 77	sStory3db       BYTE        "You watch the highwayman who killed the warden circle the mercenaries and make quick work of them.",0
	   61 74 63 68 20
	   74 68 65 20 68
	   69 67 68 77 61
	   79 6D 61 6E 20
	   77 68 6F 20 6B
	   69 6C 6C 65 64
	   20 74 68 65 20
	   77 61 72 64 65
	   6E 20 63 69 72
	   63 6C 65 20 74
	   68 65 20 6D 65
	   72 63 65 6E 61
	   72 69 65 73 20
	   61 6E 64 20 6D
	   61 6B 65 20 71
	   75 69 63 6B 20
	   77 6F 72 6B 20
	   6F 66 20 74 68
	   65 6D 2E 00
 00001B0D 54 68 65 20 68	sStory3dc       BYTE        "The highwayman turns and approaches you.",0
	   69 67 68 77 61
	   79 6D 61 6E 20
	   74 75 72 6E 73
	   20 61 6E 64 20
	   61 70 70 72 6F
	   61 63 68 65 73
	   20 79 6F 75 2E
	   00
 00001B36 48 65 20 68 61	sStory3dd       BYTE        "He has a deviant glee on your face.",0
	   73 20 61 20 64
	   65 76 69 61 6E
	   74 20 67 6C 65
	   65 20 6F 6E 20
	   79 6F 75 72 20
	   66 61 63 65 2E
	   00
 00001B5A 54 68 65 72 65	sStory3de       BYTE        "There is something unnerving about it.",0
	   20 69 73 20 73
	   6F 6D 65 74 68
	   69 6E 67 20 75
	   6E 6E 65 72 76
	   69 6E 67 20 61
	   62 6F 75 74 20
	   69 74 2E 00
				; 2 prompts for story part 3d
 00001B81 2E 2E 2E 3F 3E	sPrompt3da      BYTE        "...?> Run Away in Your Shackles",0
	   20 52 75 6E 20
	   41 77 61 79 20
	   69 6E 20 59 6F
	   75 72 20 53 68
	   61 63 6B 6C 65
	   73 00
 00001BA1 2E 2E 2E 3F 3E	sPrompt3db      BYTE        "...?> Wait for Him to Reach You",0
	   20 57 61 69 74
	   20 66 6F 72 20
	   48 69 6D 20 74
	   6F 20 52 65 61
	   63 68 20 59 6F
	   75 00

				; x pushes for story part 4a
				; 11 lines of ascii for story part 4a
 00001BC1 20 20 20 20 20	sAscii4aa       BYTE        "                     XXXX",0
	   20 20 20 20 20
	   20 20 20 20 20
	   20 20 20 20 20
	   20 58 58 58 58
	   00
 00001BDB 2B 2D 2D 2D 2D	sAscii4ab       BYTE        "+--------------------XXXX----+",0
	   2D 2D 2D 2D 2D
	   2D 2D 2D 2D 2D
	   2D 2D 2D 2D 2D
	   2D 58 58 58 58
	   2D 2D 2D 2D 2B
	   00
 00001BFA 7C 20 20 20 20	sAscii4ac       BYTE        "|                  X  XX   X |",0
	   20 20 20 20 20
	   20 20 20 20 20
	   20 20 20 20 58
	   20 20 58 58 20
	   20 20 58 20 7C
	   00
 00001C19 7C 20 2B 2D 2D	sAscii4ad       BYTE        "| +--+            X  X X XX  |",0
	   2B 20 20 20 20
	   20 20 20 20 20
	   20 20 20 58 20
	   20 58 20 58 20
	   58 58 20 20 7C
	   00
 00001C38 7C 20 7C 20 20	sAscii4ae       BYTE        "| |  +---+---+   X     X     |",0
	   2B 2D 2D 2D 2B
	   2D 2D 2D 2B 20
	   20 20 58 20 20
	   20 20 20 58 20
	   20 20 20 20 7C
	   00
 00001C57 7C 20 2B 2D 2D	sAscii4af       BYTE        "| +--+   |   |        X X    |",0
	   2B 20 20 20 7C
	   20 20 20 7C 20
	   20 20 20 20 20
	   20 20 58 20 58
	   20 20 20 20 7C
	   00
 00001C76 7C 20 20 20 3C	sAscii4ag       BYTE        "|   <----+---+-------X--->X  |",0
	   2D 2D 2D 2D 2B
	   2D 2D 2D 2B 2D
	   2D 2D 2D 2D 2D
	   2D 58 2D 2D 2D
	   3E 58 20 20 7C
	   00
 00001C95 7C 20 20 20 20	sAscii4ah       BYTE        "|                            |",0
	   20 20 20 20 20
	   20 20 20 20 20
	   20 20 20 20 20
	   20 20 20 20 20
	   20 20 20 20 7C
	   00
 00001CB4 7C 20 20 20 20	sAscii4ai       BYTE        "|                            |",0
	   20 20 20 20 20
	   20 20 20 20 20
	   20 20 20 20 20
	   20 20 20 20 20
	   20 20 20 20 7C
	   00
 00001CD3 7C 20 20 20 20	sAscii4aj       BYTE        "|                            |",0
	   20 20 20 20 20
	   20 20 20 20 20
	   20 20 20 20 20
	   20 20 20 20 20
	   20 20 20 20 7C
	   00
 00001CF2 2B 2D 2D 2D 2D	sAscii4ak       BYTE        "+----------------------------+",0
	   2D 2D 2D 2D 2D
	   2D 2D 2D 2D 2D
	   2D 2D 2D 2D 2D
	   2D 2D 2D 2D 2D
	   2D 2D 2D 2D 2B
	   00
				; 10 strings for story part 4a
 00001D11 2E 2E 2E 21 3E	sStory4aa       BYTE        "...!> With key in hand you sit there, contemplating life and your decicions. ",0
	   20 57 69 74 68
	   20 6B 65 79 20
	   69 6E 20 68 61
	   6E 64 20 79 6F
	   75 20 73 69 74
	   20 74 68 65 72
	   65 2C 20 63 6F
	   6E 74 65 6D 70
	   6C 61 74 69 6E
	   67 20 6C 69 66
	   65 20 61 6E 64
	   20 79 6F 75 72
	   20 64 65 63 69
	   63 69 6F 6E 73
	   2E 20 00
 00001D5F 4D 61 79 62 65	sStory4ab       BYTE        "Maybe you belive that by doing nothing you are paying your dues to society.",0
	   20 79 6F 75 20
	   62 65 6C 69 76
	   65 20 74 68 61
	   74 20 62 79 20
	   64 6F 69 6E 67
	   20 6E 6F 74 68
	   69 6E 67 20 79
	   6F 75 20 61 72
	   65 20 70 61 79
	   69 6E 67 20 79
	   6F 75 72 20 64
	   75 65 73 20 74
	   6F 20 73 6F 63
	   69 65 74 79 2E
	   00
 00001DAB 4D 61 79 62 65	sStory4ac       BYTE        "Maybe you just think that you wont make it.",0
	   20 79 6F 75 20
	   6A 75 73 74 20
	   74 68 69 6E 6B
	   20 74 68 61 74
	   20 79 6F 75 20
	   77 6F 6E 74 20
	   6D 61 6B 65 20
	   69 74 2E 00
 00001DD7 52 65 67 61 72	sStory4ad       BYTE        "Regardless, nothing happens and you just sit looking at the stars until morning.",0
	   64 6C 65 73 73
	   2C 20 6E 6F 74
	   68 69 6E 67 20
	   68 61 70 70 65
	   6E 73 20 61 6E
	   64 20 79 6F 75
	   20 6A 75 73 74
	   20 73 69 74 20
	   6C 6F 6F 6B 69
	   6E 67 20 61 74
	   20 74 68 65 20
	   73 74 61 72 73
	   20 75 6E 74 69
	   6C 20 6D 6F 72
	   6E 69 6E 67 2E
	   00
 00001E28 54 68 65 20 77	sStory4ae       BYTE        "The warden wakes up and is shocked that you are still around.",0
	   61 72 64 65 6E
	   20 77 61 6B 65
	   73 20 75 70 20
	   61 6E 64 20 69
	   73 20 73 68 6F
	   63 6B 65 64 20
	   74 68 61 74 20
	   79 6F 75 20 61
	   72 65 20 73 74
	   69 6C 6C 20 61
	   72 6F 75 6E 64
	   2E 00
 00001E66 48 65 20 73 74	sStory4af       BYTE        "He states that he knew you took the key and was giving you the option to excape the previous night.",0
	   61 74 65 73 20
	   74 68 61 74 20
	   68 65 20 6B 6E
	   65 77 20 79 6F
	   75 20 74 6F 6F
	   6B 20 74 68 65
	   20 6B 65 79 20
	   61 6E 64 20 77
	   61 73 20 67 69
	   76 69 6E 67 20
	   79 6F 75 20 74
	   68 65 20 6F 70
	   74 69 6F 6E 20
	   74 6F 20 65 78
	   63 61 70 65 20
	   74 68 65 20 70
	   72 65 76 69 6F
	   75 73 20 6E 69
	   67 68 74 2E 00
 00001ECA 48 65 20 67 6C	sStory4ag       BYTE        "He glances at the still asleep mercenaries. ",0
	   61 6E 63 65 73
	   20 61 74 20 74
	   68 65 20 73 74
	   69 6C 6C 20 61
	   73 6C 65 65 70
	   20 6D 65 72 63
	   65 6E 61 72 69
	   65 73 2E 20 00
 00001EF7 54 68 65 72 65	sStory4ah       BYTE        "There is still an opportunity to do so he wispers, his eyes looking into the distance.",0
	   20 69 73 20 73
	   74 69 6C 6C 20
	   61 6E 20 6F 70
	   70 6F 72 74 75
	   6E 69 74 79 20
	   74 6F 20 64 6F
	   20 73 6F 20 68
	   65 20 77 69 73
	   70 65 72 73 2C
	   20 68 69 73 20
	   65 79 65 73 20
	   6C 6F 6F 6B 69
	   6E 67 20 69 6E
	   74 6F 20 74 68
	   65 20 64 69 73
	   74 61 6E 63 65
	   2E 00
 00001F4E 48 65 20 70 6F	sStory4ai       BYTE        "He points to a sack of supplies he left out.",0
	   69 6E 74 73 20
	   74 6F 20 61 20
	   73 61 63 6B 20
	   6F 66 20 73 75
	   70 70 6C 69 65
	   73 20 68 65 20
	   6C 65 66 74 20
	   6F 75 74 2E 00
 00001F7B 49 74 20 73 65	sStory4aj       BYTE        "It seems like he wants you to take it and run.",0
	   65 6D 73 20 6C
	   69 6B 65 20 68
	   65 20 77 61 6E
	   74 73 20 79 6F
	   75 20 74 6F 20
	   74 61 6B 65 20
	   69 74 20 61 6E
	   64 20 72 75 6E
	   2E 00
				; 2 prompts for story part 4a
 00001FAA 2E 2E 2E 3F 3E	sPrompt4aa      BYTE        "...?> Do You Accept the Standard-Shackle Escape Tools?",0
	   20 44 6F 20 59
	   6F 75 20 41 63
	   63 65 70 74 20
	   74 68 65 20 53
	   74 61 6E 64 61
	   72 64 2D 53 68
	   61 63 6B 6C 65
	   20 45 73 63 61
	   70 65 20 54 6F
	   6F 6C 73 3F 00
 00001FE1 2E 2E 2E 3F 3E	sPrompt4ab      BYTE        "...?> Stay and Get Taken to Town",0
	   20 53 74 61 79
	   20 61 6E 64 20
	   47 65 74 20 54
	   61 6B 65 6E 20
	   74 6F 20 54 6F
	   77 6E 00

				; x pushes for story part 4b
				; 6 lines of ascii for story part 4b
 00002002 20 58 58 58 58	sAscii4ba       BYTE        " XXXXXXXXXXXXXXXXX",0
	   58 58 58 58 58
	   58 58 58 58 58
	   58 58 58 00
 00002015 20 58 58 20 20	sAscii4bb       BYTE        " XX                    XXXXXXXXXXX",0
	   20 20 20 20 20
	   20 20 20 20 20
	   20 20 20 20 20
	   20 20 20 58 58
	   58 58 58 58 58
	   58 58 58 58 00
 00002038 20 20 20 58 58	sAscii4bc       BYTE        "   XXXXXXXXX            XXX             XXXXXXX",0
	   58 58 58 58 58
	   58 58 20 20 20
	   20 20 20 20 20
	   20 20 20 20 58
	   58 58 20 20 20
	   20 20 20 20 20
	   20 20 20 20 20
	   58 58 58 58 58
	   58 58 00
 00002068 20 20 20 20 20	sAscii4bd       BYTE        "           XXXX           XXX            XXX",0
	   20 20 20 20 20
	   20 58 58 58 58
	   20 20 20 20 20
	   20 20 20 20 20
	   20 58 58 58 20
	   20 20 20 20 20
	   20 20 20 20 20
	   20 58 58 58 00
 00002095 20 20 20 20 20	sAscii4be       BYTE        "              XX             XXX            XXXX",0
	   20 20 20 20 20
	   20 20 20 20 58
	   58 20 20 20 20
	   20 20 20 20 20
	   20 20 20 20 58
	   58 58 20 20 20
	   20 20 20 20 20
	   20 20 20 20 58
	   58 58 58 00
 000020C6 58 58 58 58 58	sAscii4bf       BYTE        "XXXXXXXXXXXXXXXXXX     XXXXXXXXXX        XXXXXXXX",0
	   58 58 58 58 58
	   58 58 58 58 58
	   58 58 58 20 20
	   20 20 20 58 58
	   58 58 58 58 58
	   58 58 58 20 20
	   20 20 20 20 20
	   20 58 58 58 58
	   58 58 58 58 00
				; 5 strings for story part 4b
 000020F8 59 6F 75 20 63	sStory4ba       BYTE        "You creep up to the sleeping warden.",0
	   72 65 65 70 20
	   75 70 20 74 6F
	   20 74 68 65 20
	   73 6C 65 65 70
	   69 6E 67 20 77
	   61 72 64 65 6E
	   2E 00
 0000211D 59 6F 75 72 20	sStory4bb       BYTE        "Your heartbeat is the only thing you can hear as you get closer and closer.",0
	   68 65 61 72 74
	   62 65 61 74 20
	   69 73 20 74 68
	   65 20 6F 6E 6C
	   79 20 74 68 69
	   6E 67 20 79 6F
	   75 20 63 61 6E
	   20 68 65 61 72
	   20 61 73 20 79
	   6F 75 20 67 65
	   74 20 63 6C 6F
	   73 65 72 20 61
	   6E 64 20 63 6C
	   6F 73 65 72 2E
	   00
 00002169 59 6F 75 20 63	sStory4bc       BYTE        "You can hear their breath.",0
	   61 6E 20 68 65
	   61 72 20 74 68
	   65 69 72 20 62
	   72 65 61 74 68
	   2E 00
 00002184 59 6F 75 20 68	sStory4bd       BYTE        "You hear a sudden inhale from somewhere in the group.",0
	   65 61 72 20 61
	   20 73 75 64 64
	   65 6E 20 69 6E
	   68 61 6C 65 20
	   66 72 6F 6D 20
	   73 6F 6D 65 77
	   68 65 72 65 20
	   69 6E 20 74 68
	   65 20 67 72 6F
	   75 70 2E 00
 000021BA 48 61 76 65 20	sStory4be       BYTE        "Have your steps awoken someone?",0
	   79 6F 75 72 20
	   73 74 65 70 73
	   20 61 77 6F 6B
	   65 6E 20 73 6F
	   6D 65 6F 6E 65
	   3F 00
				; 2 prompts for story part 4b
 000021DA 2E 2E 2E 3F 3E	sPrompt4ba      BYTE        "...?> Stick to the Plan",0
	   20 53 74 69 63
	   6B 20 74 6F 20
	   74 68 65 20 50
	   6C 61 6E 00
 000021F2 2E 2E 2E 3F 3E	sPrompt4bb      BYTE        "...?> Walk Back Carefully, Holding Your Shackles to Prevent a Sound",0
	   20 57 61 6C 6B
	   20 42 61 63 6B
	   20 43 61 72 65
	   66 75 6C 6C 79
	   2C 20 48 6F 6C
	   64 69 6E 67 20
	   59 6F 75 72 20
	   53 68 61 63 6B
	   6C 65 73 20 74
	   6F 20 50 72 65
	   76 65 6E 74 20
	   61 20 53 6F 75
	   6E 64 00

				; x pushes for story part 4c
				; 12 lines of ascii for story part 4c
 00002236 2B 2D 2D 2D 2D	sAscii4ca       BYTE        "+----------------+               XXXXXXXX",0
	   2D 2D 2D 2D 2D
	   2D 2D 2D 2D 2D
	   2D 2D 2B 20 20
	   20 20 20 20 20
	   20 20 20 20 20
	   20 20 20 58 58
	   58 58 58 58 58
	   58 00
 00002260 7C 20 20 20 20	sAscii4cb       BYTE        "|      ||        |              X     XXXX",0
	   20 20 7C 7C 20
	   20 20 20 20 20
	   20 20 7C 20 20
	   20 20 20 20 20
	   20 20 20 20 20
	   20 20 58 20 20
	   20 20 20 58 58
	   58 58 00
 0000228B 7C 20 20 20 20	sAscii4cc       BYTE        "|      ||        |             XX    XX  X",0
	   20 20 7C 7C 20
	   20 20 20 20 20
	   20 20 7C 20 20
	   20 20 20 20 20
	   20 20 20 20 20
	   20 58 58 20 20
	   20 20 58 58 20
	   20 58 00
 000022B6 7C 20 20 20 20	sAscii4cd       BYTE        "|      ||     +----+          XX    XX   XX",0
	   20 20 7C 7C 20
	   20 20 20 20 2B
	   2D 2D 2D 2D 2B
	   20 20 20 20 20
	   20 20 20 20 20
	   58 58 20 20 20
	   20 58 58 20 20
	   20 58 58 00
 000022E2 2B 2D 2D 2D 2B	sAscii4ce       BYTE        "+---+-+--+---------|       XXXX     X      X",0
	   2D 2B 2D 2D 2B
	   2D 2D 2D 2D 2D
	   2D 2D 2D 2D 7C
	   20 20 20 20 20
	   20 20 58 58 58
	   58 20 20 20 20
	   20 58 20 20 20
	   20 20 20 58 00
 0000230F 20 20 20 20 7C	sAscii4cf       BYTE        "    | |  |    |   ||      X        XX       X",0
	   20 7C 20 20 7C
	   20 20 20 20 7C
	   20 20 20 7C 7C
	   20 20 20 20 20
	   20 58 20 20 20
	   20 20 20 20 20
	   58 58 20 20 20
	   20 20 20 20 58
	   00
 0000233D 20 20 20 20 7C	sAscii4cg       BYTE        "    | |  |    +----+     X         XX       XXX",0
	   20 7C 20 20 7C
	   20 20 20 20 2B
	   2D 2D 2D 2D 2B
	   20 20 20 20 20
	   58 20 20 20 20
	   20 20 20 20 20
	   58 58 20 20 20
	   20 20 20 20 58
	   58 58 00
 0000236D 20 20 20 20 7C	sAscii4ch       BYTE        "    | |  +--+-----+      X          XXX       XXXX",0
	   20 7C 20 20 2B
	   2D 2D 2B 2D 2D
	   2D 2D 2D 2B 20
	   20 20 20 20 20
	   58 20 20 20 20
	   20 20 20 20 20
	   20 58 58 58 20
	   20 20 20 20 20
	   20 58 58 58 58
	   00
 000023A0 20 20 20 20 7C	sAscii4ci       BYTE        "    | |     |    |       X            X          XX",0
	   20 7C 20 20 20
	   20 20 7C 20 20
	   20 20 7C 20 20
	   20 20 20 20 20
	   58 20 20 20 20
	   20 20 20 20 20
	   20 20 20 58 20
	   20 20 20 20 20
	   20 20 20 20 58
	   58 00
 000023D4 20 20 20 20 7C	sAscii4cj       BYTE        "    | |     |    |        X         XX            X",0
	   20 7C 20 20 20
	   20 20 7C 20 20
	   20 20 7C 20 20
	   20 20 20 20 20
	   20 58 20 20 20
	   20 20 20 20 20
	   20 58 58 20 20
	   20 20 20 20 20
	   20 20 20 20 20
	   58 00
 00002408 20 20 20 20 7C	sAscii4ck       BYTE        "    | |     |    |       XX         X",0
	   20 7C 20 20 20
	   20 20 7C 20 20
	   20 20 7C 20 20
	   20 20 20 20 20
	   58 58 20 20 20
	   20 20 20 20 20
	   20 58 00
 0000242E 20 20 20 20 2B	sAscii4cl       BYTE        "    + +     +    +      X          X",0
	   20 2B 20 20 20
	   20 20 2B 20 20
	   20 20 2B 20 20
	   20 20 20 20 58
	   20 20 20 20 20
	   20 20 20 20 20
	   58 00
				; 7 strings for story part 4c
 00002453 2E 2E 2E 21 3E	sStory4ca       BYTE        "...!> You sneer to yourself and turn to the woods, you're no dummy.",0
	   20 59 6F 75 20
	   73 6E 65 65 72
	   20 74 6F 20 79
	   6F 75 72 73 65
	   6C 66 20 61 6E
	   64 20 74 75 72
	   6E 20 74 6F 20
	   74 68 65 20 77
	   6F 6F 64 73 2C
	   20 79 6F 75 27
	   72 65 20 6E 6F
	   20 64 75 6D 6D
	   79 2E 00
 00002497 59 6F 75 20 6C	sStory4cb       BYTE        "You look around and see a bag of supplies that was ment for the warden and his men.",0
	   6F 6F 6B 20 61
	   72 6F 75 6E 64
	   20 61 6E 64 20
	   73 65 65 20 61
	   20 62 61 67 20
	   6F 66 20 73 75
	   70 70 6C 69 65
	   73 20 74 68 61
	   74 20 77 61 73
	   20 6D 65 6E 74
	   20 66 6F 72 20
	   74 68 65 20 77
	   61 72 64 65 6E
	   20 61 6E 64 20
	   68 69 73 20 6D
	   65 6E 2E 00
 000024EB 57 69 74 68 20	sStory4cc       BYTE        "With barely and thought you pick up the bag and sling it over your back.",0
	   62 61 72 65 6C
	   79 20 61 6E 64
	   20 74 68 6F 75
	   67 68 74 20 79
	   6F 75 20 70 69
	   63 6B 20 75 70
	   20 74 68 65 20
	   62 61 67 20 61
	   6E 64 20 73 6C
	   69 6E 67 20 69
	   74 20 6F 76 65
	   72 20 79 6F 75
	   72 20 62 61 63
	   6B 2E 00
 00002534 49 6E 20 79 6F	sStory4cd       BYTE        "In your mind you know that a 7 hour headstart will be more than enough to evade the warden and his men.",0
	   75 72 20 6D 69
	   6E 64 20 79 6F
	   75 20 6B 6E 6F
	   77 20 74 68 61
	   74 20 61 20 37
	   20 68 6F 75 72
	   20 68 65 61 64
	   73 74 61 72 74
	   20 77 69 6C 6C
	   20 62 65 20 6D
	   6F 72 65 20 74
	   68 61 6E 20 65
	   6E 6F 75 67 68
	   20 74 6F 20 65
	   76 61 64 65 20
	   74 68 65 20 77
	   61 72 64 65 6E
	   20 61 6E 64 20
	   68 69 73 20 6D
	   65 6E 2E 00
 0000259C 57 69 74 68 20	sStory4ce       BYTE        "With this thought swimming in your head you look to the woods.",0
	   74 68 69 73 20
	   74 68 6F 75 67
	   68 74 20 73 77
	   69 6D 6D 69 6E
	   67 20 69 6E 20
	   79 6F 75 72 20
	   68 65 61 64 20
	   79 6F 75 20 6C
	   6F 6F 6B 20 74
	   6F 20 74 68 65
	   20 77 6F 6F 64
	   73 2E 00
 000025DB 54 68 65 72 65	sStory4cf       BYTE        "Theres a darker path that leads deeper in the forest.",0
	   73 20 61 20 64
	   61 72 6B 65 72
	   20 70 61 74 68
	   20 74 68 61 74
	   20 6C 65 61 64
	   73 20 64 65 65
	   70 65 72 20 69
	   6E 20 74 68 65
	   20 66 6F 72 65
	   73 74 2E 00
 00002611 54 68 65 72 65	sStory4cg       BYTE        "There is a more brambled path that leads up and circles back across the road.",0
	   20 69 73 20 61
	   20 6D 6F 72 65
	   20 62 72 61 6D
	   62 6C 65 64 20
	   70 61 74 68 20
	   74 68 61 74 20
	   6C 65 61 64 73
	   20 75 70 20 61
	   6E 64 20 63 69
	   72 63 6C 65 73
	   20 62 61 63 6B
	   20 61 63 72 6F
	   73 73 20 74 68
	   65 20 72 6F 61
	   64 2E 00
				; 2 prompts for story part 4c
 0000265F 2E 2E 2E 3F 3E	sPrompt4ca      BYTE        "...?> Dark Path",0
	   20 44 61 72 6B
	   20 50 61 74 68
	   00
 0000266F 2E 2E 2E 3F 3E	sPrompt4cb      BYTE        "...?> Brambled Path",0
	   20 42 72 61 6D
	   62 6C 65 64 20
	   50 61 74 68 00

				; x pushes for story part 4d
				; 12 lines of ascii for story part 4d
 00002683 20 20 58 58 58	sAscii4da       BYTE        "  XXXXXXXXXXXXXXXXXXXX",0
	   58 58 58 58 58
	   58 58 58 58 58
	   58 58 58 58 58
	   58 58 00
 0000269A 58 58 58 20 20	sAscii4db       BYTE        "XXX                 XX    X",0
	   20 20 20 20 20
	   20 20 20 20 20
	   20 20 20 20 20
	   58 58 20 20 20
	   20 58 00
 000026B6 20 20 20 20 20	sAscii4dc       BYTE        "                XXXX   XXX",0
	   20 20 20 20 20
	   20 20 20 20 20
	   20 58 58 58 58
	   20 20 20 58 58
	   58 00
 000026D1 20 20 20 20 20	sAscii4dd       BYTE        "               XX       XX",0
	   20 20 20 20 20
	   20 20 20 20 20
	   58 58 20 20 20
	   20 20 20 20 58
	   58 00
 000026EC 20 20 20 20 20	sAscii4de       BYTE        "              XX     XXXXXXXX",0
	   20 20 20 20 20
	   20 20 20 20 58
	   58 20 20 20 20
	   20 58 58 58 58
	   58 58 58 58 00
 0000270A 20 20 20 20 20	sAscii4df       BYTE        "             XX         XX",0
	   20 20 20 20 20
	   20 20 20 58 58
	   20 20 20 20 20
	   20 20 20 20 58
	   58 00
 00002725 20 20 20 20 20	sAscii4dg       BYTE        "             X         X X",0
	   20 20 20 20 20
	   20 20 20 58 20
	   20 20 20 20 20
	   20 20 20 58 20
	   58 00
 00002740 20 20 20 20 20	sAscii4dh       BYTE        "            XX          X",0
	   20 20 20 20 20
	   20 20 58 58 20
	   20 20 20 20 20
	   20 20 20 20 58
	   00
 0000275A 20 20 20 20 20	sAscii4di       BYTE        "            X",0
	   20 20 20 20 20
	   20 20 58 00
 00002768 20 20 20 20 20	sAscii4dj       BYTE        "            X",0
	   20 20 20 20 20
	   20 20 58 00
 00002776 20 20 20 20 20	sAscii4dk       BYTE        "            X",0 ; I know that these 4 strings being the same is needless. It helps me.
	   20 20 20 20 20
	   20 20 58 00
 00002784 20 20 20 20 20	sAscii4dl       BYTE        "            X",0
	   20 20 20 20 20
	   20 20 58 00
				; 7 strings for story part 4d
 00002792 2E 2E 2E 21 3E	sStory4da       BYTE        "...!> You desperatly try to shuffle away. The highwayman lets you run.",0
	   20 59 6F 75 20
	   64 65 73 70 65
	   72 61 74 6C 79
	   20 74 72 79 20
	   74 6F 20 73 68
	   75 66 66 6C 65
	   20 61 77 61 79
	   2E 20 54 68 65
	   20 68 69 67 68
	   77 61 79 6D 61
	   6E 20 6C 65 74
	   73 20 79 6F 75
	   20 72 75 6E 2E
	   00
 000027D9 2E 2E 2E 55 6E	sStory4db       BYTE        "...Until he kicks you in the back while you try to excape.",0
	   74 69 6C 20 68
	   65 20 6B 69 63
	   6B 73 20 79 6F
	   75 20 69 6E 20
	   74 68 65 20 62
	   61 63 6B 20 77
	   68 69 6C 65 20
	   79 6F 75 20 74
	   72 79 20 74 6F
	   20 65 78 63 61
	   70 65 2E 00
 00002814 59 6F 75 20 74	sStory4dc       BYTE        "You tumble down a hill qathering speed. ",0
	   75 6D 62 6C 65
	   20 64 6F 77 6E
	   20 61 20 68 69
	   6C 6C 20 71 61
	   74 68 65 72 69
	   6E 67 20 73 70
	   65 65 64 2E 20
	   00
 0000283D 41 73 20 74 68	sStory4dd       BYTE        "As the highwaymen fade from view you cant help but feel that the path you are falling down is darkening, the leaves overhead getting thicker.",0
	   65 20 68 69 67
	   68 77 61 79 6D
	   65 6E 20 66 61
	   64 65 20 66 72
	   6F 6D 20 76 69
	   65 77 20 79 6F
	   75 20 63 61 6E
	   74 20 68 65 6C
	   70 20 62 75 74
	   20 66 65 65 6C
	   20 74 68 61 74
	   20 74 68 65 20
	   70 61 74 68 20
	   79 6F 75 20 61
	   72 65 20 66 61
	   6C 6C 69 6E 67
	   20 64 6F 77 6E
	   20 69 73 20 64
	   61 72 6B 65 6E
	   69 6E 67 2C 20
	   74 68 65 20 6C
	   65 61 76 65 73
	   20 6F 76 65 72
	   68 65 61 64 20
	   67 65 74 74 69
	   6E 67 20 74 68
	   69 63 6B 65 72
	   2E 00
 000028CB 4D 61 79 62 65	sStory4de       BYTE        "Maybe it's just youre concience, but you think you can hear wispers. ",0
	   20 69 74 27 73
	   20 6A 75 73 74
	   20 79 6F 75 72
	   65 20 63 6F 6E
	   63 69 65 6E 63
	   65 2C 20 62 75
	   74 20 79 6F 75
	   20 74 68 69 6E
	   6B 20 79 6F 75
	   20 63 61 6E 20
	   68 65 61 72 20
	   77 69 73 70 65
	   72 73 2E 20 00
 00002911 54 68 65 72 65	sStory4df       BYTE        "There looks like there is another path, quite brambly and it loops back on the road already traveled.",0
	   20 6C 6F 6F 6B
	   73 20 6C 69 6B
	   65 20 74 68 65
	   72 65 20 69 73
	   20 61 6E 6F 74
	   68 65 72 20 70
	   61 74 68 2C 20
	   71 75 69 74 65
	   20 62 72 61 6D
	   62 6C 79 20 61
	   6E 64 20 69 74
	   20 6C 6F 6F 70
	   73 20 62 61 63
	   6B 20 6F 6E 20
	   74 68 65 20 72
	   6F 61 64 20 61
	   6C 72 65 61 64
	   79 20 74 72 61
	   76 65 6C 65 64
	   2E 00
 00002977 48 6F 77 65 76	sStory4dg       BYTE        "However, the dark confines of the forst are almost calling to you...",0
	   65 72 2C 20 74
	   68 65 20 64 61
	   72 6B 20 63 6F
	   6E 66 69 6E 65
	   73 20 6F 66 20
	   74 68 65 20 66
	   6F 72 73 74 20
	   61 72 65 20 61
	   6C 6D 6F 73 74
	   20 63 61 6C 6C
	   69 6E 67 20 74
	   6F 20 79 6F 75
	   2E 2E 2E 00
				; 2 prompts for story part 4d
 000029BC 2E 2E 2E 3F 3E	sPrompt4da      BYTE        "...?> Seek Your Destiny",0
	   20 53 65 65 6B
	   20 59 6F 75 72
	   20 44 65 73 74
	   69 6E 79 00
 000029D4 2E 2E 2E 3F 3E	sPrompt4db      BYTE        "...?> Walk to the Bramble Path",0
	   20 57 61 6C 6B
	   20 74 6F 20 74
	   68 65 20 42 72
	   61 6D 62 6C 65
	   20 50 61 74 68
	   00

				; x pushes for story part 4e
				; 8 strings for story part 4e
 000029F3 2E 2E 2E 21 3E	sStory4ea       BYTE        "...!> The angry highwayman approaches.",0
	   20 54 68 65 20
	   61 6E 67 72 79
	   20 68 69 67 68
	   77 61 79 6D 61
	   6E 20 61 70 70
	   72 6F 61 63 68
	   65 73 2E 00
 00002A1A 48 65 20 64 72	sStory4eb       BYTE        "He drags his weapon on the ground like an executioner about to lop off a convicts head.",0
	   61 67 73 20 68
	   69 73 20 77 65
	   61 70 6F 6E 20
	   6F 6E 20 74 68
	   65 20 67 72 6F
	   75 6E 64 20 6C
	   69 6B 65 20 61
	   6E 20 65 78 65
	   63 75 74 69 6F
	   6E 65 72 20 61
	   62 6F 75 74 20
	   74 6F 20 6C 6F
	   70 20 6F 66 66
	   20 61 20 63 6F
	   6E 76 69 63 74
	   73 20 68 65 61
	   64 2E 00
 00002A72 54 68 69 73 20	sStory4ec       BYTE        "This is bad news for you as you are a convict.",0
	   69 73 20 62 61
	   64 20 6E 65 77
	   73 20 66 6F 72
	   20 79 6F 75 20
	   61 73 20 79 6F
	   75 20 61 72 65
	   20 61 20 63 6F
	   6E 76 69 63 74
	   2E 00
 00002AA1 59 6F 75 20 6C	sStory4ed       BYTE        "You look to your left.",0
	   6F 6F 6B 20 74
	   6F 20 79 6F 75
	   72 20 6C 65 66
	   74 2E 00
 00002AB8 59 6F 75 20 6C	sStory4ee       BYTE        "You look to your right.",0
	   6F 6F 6B 20 74
	   6F 20 79 6F 75
	   72 20 72 69 67
	   68 74 2E 00
 00002AD0 59 6F 75 20 6C	sStory4ef       BYTE        "You look at your options.",0
	   6F 6F 6B 20 61
	   74 20 79 6F 75
	   72 20 6F 70 74
	   69 6F 6E 73 2E
	   00
 00002AEA 4C 6F 6F 6B 73	sStory4eg       BYTE        "Looks like you can stay and be killed,",0
	   20 6C 69 6B 65
	   20 79 6F 75 20
	   63 61 6E 20 73
	   74 61 79 20 61
	   6E 64 20 62 65
	   20 6B 69 6C 6C
	   65 64 2C 00
 00002B11 6F 72 20 72 6F	sStory4eh       BYTE        "or roll down a cliff into the forest below.",0
	   6C 6C 20 64 6F
	   77 6E 20 61 20
	   63 6C 69 66 66
	   20 69 6E 74 6F
	   20 74 68 65 20
	   66 6F 72 65 73
	   74 20 62 65 6C
	   6F 77 2E 00
				; 2 prompts for story part 4e
 00002B3D 2E 2E 2E 3F 3E	sPrompt4ea      BYTE        "...?> Stay and Become a Lot Lighter",0
	   20 53 74 61 79
	   20 61 6E 64 20
	   42 65 63 6F 6D
	   65 20 61 20 4C
	   6F 74 20 4C 69
	   67 68 74 65 72
	   00
 00002B61 2E 2E 2E 3F 3E	sPrompt4eb      BYTE        "...?> Make Like a Banana and Split",0
	   20 4D 61 6B 65
	   20 4C 69 6B 65
	   20 61 20 42 61
	   6E 61 6E 61 20
	   61 6E 64 20 53
	   70 6C 69 74 00

				; 5 pushes for story part 5a
				; 5 strings for story part 5a
 00002B84 2E 2E 2E 21 3E	sStory5aa       BYTE        "...!> You decide to risk it. Quickly you wander up and pickup the key with your hand.",0
	   20 59 6F 75 20
	   64 65 63 69 64
	   65 20 74 6F 20
	   72 69 73 6B 20
	   69 74 2E 20 51
	   75 69 63 6B 6C
	   79 20 79 6F 75
	   20 77 61 6E 64
	   65 72 20 75 70
	   20 61 6E 64 20
	   70 69 63 6B 75
	   70 20 74 68 65
	   20 6B 65 79 20
	   77 69 74 68 20
	   79 6F 75 72 20
	   68 61 6E 64 2E
	   00
 00002BDA 20 49 74 20 66	sStory5ab       BYTE        " It feels cold like the deeds you've done to get here.",0
	   65 65 6C 73 20
	   63 6F 6C 64 20
	   6C 69 6B 65 20
	   74 68 65 20 64
	   65 65 64 73 20
	   79 6F 75 27 76
	   65 20 64 6F 6E
	   65 20 74 6F 20
	   67 65 74 20 68
	   65 72 65 2E 00
 00002C11 57 69 74 68 20	sStory5ac       BYTE        "With a guilty concience you sneak away and try the key on your locks.",0
	   61 20 67 75 69
	   6C 74 79 20 63
	   6F 6E 63 69 65
	   6E 63 65 20 79
	   6F 75 20 73 6E
	   65 61 6B 20 61
	   77 61 79 20 61
	   6E 64 20 74 72
	   79 20 74 68 65
	   20 6B 65 79 20
	   6F 6E 20 79 6F
	   75 72 20 6C 6F
	   63 6B 73 2E 00
 00002C57 20 53 6F 6D 65	sStory5ad       BYTE        " Someone comes whistling and tells you that you should not have done this.",0
	   6F 6E 65 20 63
	   6F 6D 65 73 20
	   77 68 69 73 74
	   6C 69 6E 67 20
	   61 6E 64 20 74
	   65 6C 6C 73 20
	   79 6F 75 20 74
	   68 61 74 20 79
	   6F 75 20 73 68
	   6F 75 6C 64 20
	   6E 6F 74 20 68
	   61 76 65 20 64
	   6F 6E 65 20 74
	   68 69 73 2E 00
 00002CA2 20 48 65 20 73	sStory5ae       BYTE        " He stabs the key into your eye and kills you... end",0
	   74 61 62 73 20
	   74 68 65 20 6B
	   65 79 20 69 6E
	   74 6F 20 79 6F
	   75 72 20 65 79
	   65 20 61 6E 64
	   20 6B 69 6C 6C
	   73 20 79 6F 75
	   2E 2E 2E 20 65
	   6E 64 00

				; 31 pushes for story part 5b
				; 9 lines of ascii for story part 5b
 00002CD7 20 20 20 20 20	sAscii5ba       BYTE        "                        XXXX",0
	   20 20 20 20 20
	   20 20 20 20 20
	   20 20 20 20 20
	   20 20 20 20 58
	   58 58 58 00
 00002CF4 20 20 20 20 20	sAscii5bb       BYTE        "                        XXXXX",0
	   20 20 20 20 20
	   20 20 20 20 20
	   20 20 20 20 20
	   20 20 20 20 58
	   58 58 58 58 00
 00002D12 20 20 20 2B 2D	sAscii5bc       BYTE        "   +---------------+ X   XX",0
	   2D 2D 2D 2D 2D
	   2D 2D 2D 2D 2D
	   2D 2D 2D 2D 2B
	   20 58 20 20 20
	   58 58 00
 00002D2E 20 20 20 7C 20	sAscii5bd       BYTE        "   |               | XXXXXX",0
	   20 20 20 20 20
	   20 20 20 20 20
	   20 20 20 20 7C
	   20 58 58 58 58
	   58 58 00
 00002D4A 20 58 58 58 58	sAscii5be       BYTE        " XXXX              |     XXX",0
	   20 20 20 20 20
	   20 20 20 20 20
	   20 20 20 20 7C
	   20 20 20 20 20
	   58 58 58 00
 00002D67 58 58 20 7C 20	sAscii5bf       BYTE        "XX | XX          XXXX    X XXX",0
	   58 58 20 20 20
	   20 20 20 20 20
	   20 20 58 58 58
	   58 20 20 20 20
	   58 20 58 58 58
	   00
 00002D86 58 20 20 2B 2D	sAscii5bg       BYTE        "X  +--X---------XX-+ X   X    X",0
	   2D 58 2D 2D 2D
	   2D 2D 2D 2D 2D
	   2D 58 58 2D 2B
	   20 58 20 20 20
	   58 20 20 20 20
	   58 00
 00002DA6 58 58 20 20 20	sAscii5bh       BYTE        "XX   XX         X    X",0
	   58 58 20 20 20
	   20 20 20 20 20
	   20 58 20 20 20
	   20 58 00
 00002DBD 20 58 58 58 58	sAscii5bi       BYTE        " XXXXX           XXXXX",0
	   58 20 20 20 20
	   20 20 20 20 20
	   20 20 58 58 58
	   58 58 00
				; 20 strings for story part 5b
 00002DD4 2E 2E 2E 21 3E	sStory5ba       BYTE        "...!> You retreat into the cart back where you where.",0
	   20 59 6F 75 20
	   72 65 74 72 65
	   61 74 20 69 6E
	   74 6F 20 74 68
	   65 20 63 61 72
	   74 20 62 61 63
	   6B 20 77 68 65
	   72 65 20 79 6F
	   75 20 77 68 65
	   72 65 2E 00
 00002E0A 59 6F 75 20 64	sStory5bb       BYTE        "You don't know why you did this. ",0
	   6F 6E 27 74 20
	   6B 6E 6F 77 20
	   77 68 79 20 79
	   6F 75 20 64 69
	   64 20 74 68 69
	   73 2E 20 00
 00002E2C 59 6F 75 20 61	sStory5bc       BYTE        "You are for sure going to get hanged for your past crimes.",0
	   72 65 20 66 6F
	   72 20 73 75 72
	   65 20 67 6F 69
	   6E 67 20 74 6F
	   20 67 65 74 20
	   68 61 6E 67 65
	   64 20 66 6F 72
	   20 79 6F 75 72
	   20 70 61 73 74
	   20 63 72 69 6D
	   65 73 2E 00
 00002E67 4D 61 79 62 65	sStory5bd       BYTE        "Maybe this is a turning point for you and your life.",0
	   20 74 68 69 73
	   20 69 73 20 61
	   20 74 75 72 6E
	   69 6E 67 20 70
	   6F 69 6E 74 20
	   66 6F 72 20 79
	   6F 75 20 61 6E
	   64 20 79 6F 75
	   72 20 6C 69 66
	   65 2E 00
 00002E9C 4D 61 79 62 65	sStory5be       BYTE        "Maybe you just aren't up for it.",0
	   20 79 6F 75 20
	   6A 75 73 74 20
	   61 72 65 6E 27
	   74 20 75 70 20
	   66 6F 72 20 69
	   74 2E 00
 00002EBD 45 69 74 68 65	sStory5bf       BYTE        "Either way, you go back to sleep.",0
	   72 20 77 61 79
	   2C 20 79 6F 75
	   20 67 6F 20 62
	   61 63 6B 20 74
	   6F 20 73 6C 65
	   65 70 2E 00
 00002EDF 49 6E 20 74 68	sStory5bg       BYTE        "In the morning the warden walks over to you and wakes you up.",0
	   65 20 6D 6F 72
	   6E 69 6E 67 20
	   74 68 65 20 77
	   61 72 64 65 6E
	   20 77 61 6C 6B
	   73 20 6F 76 65
	   72 20 74 6F 20
	   79 6F 75 20 61
	   6E 64 20 77 61
	   6B 65 73 20 79
	   6F 75 20 75 70
	   2E 00
 00002F1D 54 69 6D 65 20	sStory5bh       BYTE        "Time for a long day on the road... He sneers.",0
	   66 6F 72 20 61
	   20 6C 6F 6E 67
	   20 64 61 79 20
	   6F 6E 20 74 68
	   65 20 72 6F 61
	   64 2E 2E 2E 20
	   48 65 20 73 6E
	   65 65 72 73 2E
	   00
 00002F4B 59 6F 75 27 72	sStory5bi       BYTE        "You're picked up and put back into the wagon.",0
	   65 20 70 69 63
	   6B 65 64 20 75
	   70 20 61 6E 64
	   20 70 75 74 20
	   62 61 63 6B 20
	   69 6E 74 6F 20
	   74 68 65 20 77
	   61 67 6F 6E 2E
	   00
 00002F79 57 69 74 68 20	sStory5bj       BYTE        "With the lone cart trooping along you eventually come into a terrible worn down town.",0
	   74 68 65 20 6C
	   6F 6E 65 20 63
	   61 72 74 20 74
	   72 6F 6F 70 69
	   6E 67 20 61 6C
	   6F 6E 67 20 79
	   6F 75 20 65 76
	   65 6E 74 75 61
	   6C 6C 79 20 63
	   6F 6D 65 20 69
	   6E 74 6F 20 61
	   20 74 65 72 72
	   69 62 6C 65 20
	   77 6F 72 6E 20
	   64 6F 77 6E 20
	   74 6F 77 6E 2E
	   00
 00002FCF 49 74 20 6C 6F	sStory5bk       BYTE        "It looks like there hasn't been any kind new economic activity here in years.",0
	   6F 6B 73 20 6C
	   69 6B 65 20 74
	   68 65 72 65 20
	   68 61 73 6E 27
	   74 20 62 65 65
	   6E 20 61 6E 79
	   20 6B 69 6E 64
	   20 6E 65 77 20
	   65 63 6F 6E 6F
	   6D 69 63 20 61
	   63 74 69 76 69
	   74 79 20 68 65
	   72 65 20 69 6E
	   20 79 65 61 72
	   73 2E 00
 0000301D 50 65 6F 70 6C	sStory5bl       BYTE        "People line the streets to watch you be carted in like some kind of sick parade.",0
	   65 20 6C 69 6E
	   65 20 74 68 65
	   20 73 74 72 65
	   65 74 73 20 74
	   6F 20 77 61 74
	   63 68 20 79 6F
	   75 20 62 65 20
	   63 61 72 74 65
	   64 20 69 6E 20
	   6C 69 6B 65 20
	   73 6F 6D 65 20
	   6B 69 6E 64 20
	   6F 66 20 73 69
	   63 6B 20 70 61
	   72 61 64 65 2E
	   00
 0000306E 59 6F 75 20 73	sStory5bm       BYTE        "You see a noose dangling in the distance.",0
	   65 65 20 61 20
	   6E 6F 6F 73 65
	   20 64 61 6E 67
	   6C 69 6E 67 20
	   69 6E 20 74 68
	   65 20 64 69 73
	   74 61 6E 63 65
	   2E 00
 00003098 49 73 20 74 68	sStory5bn       BYTE        "Is this the end for you?",0
	   69 73 20 74 68
	   65 20 65 6E 64
	   20 66 6F 72 20
	   79 6F 75 3F 00
 000030B1 53 75 64 64 65	sStory5bo       BYTE        "Suddenly the cart is jostled.",0
	   6E 6C 79 20 74
	   68 65 20 63 61
	   72 74 20 69 73
	   20 6A 6F 73 74
	   6C 65 64 2E 00
 000030CF 4C 6F 6F 6B 69	sStory5bp       BYTE        "Looking left and right you see the crowd isnt just there for show.",0
	   6E 67 20 6C 65
	   66 74 20 61 6E
	   64 20 72 69 67
	   68 74 20 79 6F
	   75 20 73 65 65
	   20 74 68 65 20
	   63 72 6F 77 64
	   20 69 73 6E 74
	   20 6A 75 73 74
	   20 74 68 65 72
	   65 20 66 6F 72
	   20 73 68 6F 77
	   2E 00
 00003112 54 68 65 79 20	sStory5bq       BYTE        "They look angry.",0
	   6C 6F 6F 6B 20
	   61 6E 67 72 79
	   2E 00
 00003123 52 65 61 6C 6C	sStory5br       BYTE        "Really angry.",0
	   79 20 61 6E 67
	   72 79 2E 00
 00003131 59 6F 75 72 20	sStory5bs       BYTE        "Your cart is shaken and tipped over.",0
	   63 61 72 74 20
	   69 73 20 73 68
	   61 6B 65 6E 20
	   61 6E 64 20 74
	   69 70 70 65 64
	   20 6F 76 65 72
	   2E 00
 00003156 4C 6F 6F 6B 73	sStory5bt       BYTE        "Looks like you have an opportunity, and that means you have to make a decision. ",0
	   20 6C 69 6B 65
	   20 79 6F 75 20
	   68 61 76 65 20
	   61 6E 20 6F 70
	   70 6F 72 74 75
	   6E 69 74 79 2C
	   20 61 6E 64 20
	   74 68 61 74 20
	   6D 65 61 6E 73
	   20 79 6F 75 20
	   68 61 76 65 20
	   74 6F 20 6D 61
	   6B 65 20 61 20
	   64 65 63 69 73
	   69 6F 6E 2E 20
	   00
				; 2 prompts for story part 5b
 000031A7 2E 2E 2E 3F 3E	sPrompt5ba      BYTE        "...?> You can Crawl Out of the Cart into the Feat of the Angry Mob.",0
	   20 59 6F 75 20
	   63 61 6E 20 43
	   72 61 77 6C 20
	   4F 75 74 20 6F
	   66 20 74 68 65
	   20 43 61 72 74
	   20 69 6E 74 6F
	   20 74 68 65 20
	   46 65 61 74 20
	   6F 66 20 74 68
	   65 20 41 6E 67
	   72 79 20 4D 6F
	   62 2E 00
 000031EB 2E 2E 2E 3F 3E	sPrompt5bb      BYTE        "...?> You can Fight With the mob Against the Warden",0
	   20 59 6F 75 20
	   63 61 6E 20 46
	   69 67 68 74 20
	   57 69 74 68 20
	   74 68 65 20 6D
	   6F 62 20 41 67
	   61 69 6E 73 74
	   20 74 68 65 20
	   57 61 72 64 65
	   6E 00

				; 21 pushes for story part 5c
				; 10 lines of ascii for story part 5c
 0000321F 20 20 20 20 20	sAscii5ca       BYTE        "     +",0
	   2B 00
 00003226 20 20 20 20 20	sAscii5cb       BYTE        "     |",0
	   7C 00
 0000322D 20 20 20 20 20	sAscii5cc       BYTE        "     | X",0
	   7C 20 58 00
 00003236 20 20 20 58 20	sAscii5cd       BYTE        "   X |  X",0
	   7C 20 20 58 00
 00003240 20 20 58 20 20	sAscii5ce       BYTE        "  X  |  XX       +------------+",0
	   7C 20 20 58 58
	   20 20 20 20 20
	   20 20 2B 2D 2D
	   2D 2D 2D 2D 2D
	   2D 2D 2D 2D 2D
	   2B 00
 00003260 20 20 58 58 58	sAscii5cf       BYTE        "  XXX|XXXX       |            |",0
	   7C 58 58 58 58
	   20 20 20 20 20
	   20 20 7C 20 20
	   20 20 20 20 20
	   20 20 20 20 20
	   7C 00
 00003280 2B 2D 2D 2D 2D	sAscii5cg       BYTE        "+------XXX       | +------->  |",0
	   2D 2D 58 58 58
	   20 20 20 20 20
	   20 20 7C 20 2B
	   2D 2D 2D 2D 2D
	   2D 2D 3E 20 20
	   7C 00
 000032A0 7C 20 20 20 20	sAscii5ch       BYTE        "|      X|        |            |",0
	   20 20 58 7C 20
	   20 20 20 20 20
	   20 20 7C 20 20
	   20 20 20 20 20
	   20 20 20 20 20
	   7C 00
 000032C0 7C 20 20 20 20	sAscii5ci       BYTE        "|       |        +------------+",0
	   20 20 20 7C 20
	   20 20 20 20 20
	   20 20 2B 2D 2D
	   2D 2D 2D 2D 2D
	   2D 2D 2D 2D 2D
	   2B 00
 000032E0 2B 2D 2D 2D 2D	sAscii5cj       BYTE        "+-------+",0
	   2D 2D 2D 2B 00
				; 9 strings for story part 5c
 000032EA 2E 2E 2E 21 3E	sStory5ca       BYTE        "...!> You decend into the woods. The path is easy despite your shackles.",0
	   20 59 6F 75 20
	   64 65 63 65 6E
	   64 20 69 6E 74
	   6F 20 74 68 65
	   20 77 6F 6F 64
	   73 2E 20 54 68
	   65 20 70 61 74
	   68 20 69 73 20
	   65 61 73 79 20
	   64 65 73 70 69
	   74 65 20 79 6F
	   75 72 20 73 68
	   61 63 6B 6C 65
	   73 2E 00
 00003333 54 68 65 20 66	sStory5cb       BYTE        "The forest almost seems to accept you.",0
	   6F 72 65 73 74
	   20 61 6C 6D 6F
	   73 74 20 73 65
	   65 6D 73 20 74
	   6F 20 61 63 63
	   65 70 74 20 79
	   6F 75 2E 00
 0000335A 41 73 20 74 68	sStory5cc       BYTE        "As the leaves get closer and closer to you, you begin to see a glimer in the distance.",0
	   65 20 6C 65 61
	   76 65 73 20 67
	   65 74 20 63 6C
	   6F 73 65 72 20
	   61 6E 64 20 63
	   6C 6F 73 65 72
	   20 74 6F 20 79
	   6F 75 2C 20 79
	   6F 75 20 62 65
	   67 69 6E 20 74
	   6F 20 73 65 65
	   20 61 20 67 6C
	   69 6D 65 72 20
	   69 6E 20 74 68
	   65 20 64 69 73
	   74 61 6E 63 65
	   2E 00
 000033B1 59 6F 75 20 71	sStory5cd       BYTE        "You quicken your pace.",0
	   75 69 63 6B 65
	   6E 20 79 6F 75
	   72 20 70 61 63
	   65 2E 00
 000033C8 59 6F 75 20 73	sStory5ce       BYTE        "You see a war axe placed into a stump.",0
	   65 65 20 61 20
	   77 61 72 20 61
	   78 65 20 70 6C
	   61 63 65 64 20
	   69 6E 74 6F 20
	   61 20 73 74 75
	   6D 70 2E 00
 000033EF 49 74 73 20 63	sStory5cf       BYTE        "Its calling to you.",0
	   61 6C 6C 69 6E
	   67 20 74 6F 20
	   79 6F 75 2E 00
 00003403 59 6F 75 20 66	sStory5cg       BYTE        "You feel hesistant to approach it.",0
	   65 65 6C 20 68
	   65 73 69 73 74
	   61 6E 74 20 74
	   6F 20 61 70 70
	   72 6F 61 63 68
	   20 69 74 2E 00
 00003426 49 74 20 73 65	sStory5ch       BYTE        "It seems bad. Real Bad.",0
	   65 6D 73 20 62
	   61 64 2E 20 52
	   65 61 6C 20 42
	   61 64 2E 00
 0000343E 59 6F 75 20 6B	sStory5ci       BYTE        "You kinda want to leave.",0
	   69 6E 64 61 20
	   77 61 6E 74 20
	   74 6F 20 6C 65
	   61 76 65 2E 00
 00003457 42 55 54 2E 2E	sStory5cj       BYTE        "BUT....From the looks of it you could break your chains on this axe....",0
	   2E 2E 46 72 6F
	   6D 20 74 68 65
	   20 6C 6F 6F 6B
	   73 20 6F 66 20
	   69 74 20 79 6F
	   75 20 63 6F 75
	   6C 64 20 62 72
	   65 61 6B 20 79
	   6F 75 72 20 63
	   68 61 69 6E 73
	   20 6F 6E 20 74
	   68 69 73 20 61
	   78 65 2E 2E 2E
	   2E 00
				; 2 prompts for story part 5c
 0000349F 2E 2E 2E 3F 3E	sPrompt5ca      BYTE        "...?> Break Your Chains and Grab the Axe",0
	   20 42 72 65 61
	   6B 20 59 6F 75
	   72 20 43 68 61
	   69 6E 73 20 61
	   6E 64 20 47 72
	   61 62 20 74 68
	   65 20 41 78 65
	   00
 000034C8 2E 2E 2E 3F 3E	sPrompt5cb      BYTE        "...?> Walk Away",0
	   20 57 61 6C 6B
	   20 41 77 61 79
	   00

				; 6 pushes for story part 5d
				; 4 strings for story part 5d
 000034D8 2E 2E 2E 21 3E	sStory5da       BYTE        "...!> You go farther into the woods and see a large war axe punched into a stump.",0
	   20 59 6F 75 20
	   67 6F 20 66 61
	   72 74 68 65 72
	   20 69 6E 74 6F
	   20 74 68 65 20
	   77 6F 6F 64 73
	   20 61 6E 64 20
	   73 65 65 20 61
	   20 6C 61 72 67
	   65 20 77 61 72
	   20 61 78 65 20
	   70 75 6E 63 68
	   65 64 20 69 6E
	   74 6F 20 61 20
	   73 74 75 6D 70
	   2E 00
 0000352A 49 74 20 77 69	sStory5db       BYTE        "It wisper dark secrets into your ear as all suspicious axes should.",0
	   73 70 65 72 20
	   64 61 72 6B 20
	   73 65 63 72 65
	   74 73 20 69 6E
	   74 6F 20 79 6F
	   75 72 20 65 61
	   72 20 61 73 20
	   61 6C 6C 20 73
	   75 73 70 69 63
	   69 6F 75 73 20
	   61 78 65 73 20
	   73 68 6F 75 6C
	   64 2E 00
 0000356E 49 74 20 69 73	sStory5dc       BYTE        "It is calling to youuuu.",0
	   20 63 61 6C 6C
	   69 6E 67 20 74
	   6F 20 79 6F 75
	   75 75 75 2E 00
 00003587 48 6F 77 65 76	sStory5dd       BYTE        "However, this could be useful in aiding your escape.",0
	   65 72 2C 20 74
	   68 69 73 20 63
	   6F 75 6C 64 20
	   62 65 20 75 73
	   65 66 75 6C 20
	   69 6E 20 61 69
	   64 69 6E 67 20
	   79 6F 75 72 20
	   65 73 63 61 70
	   65 2E 00
				; 2 prompts for story part 5d
 000035BC 2E 2E 2E 3F 3E	sPrompt5da      BYTE        "...?> However, This Could be Useful in Aiding Your Escape.",0
	   20 48 6F 77 65
	   76 65 72 2C 20
	   54 68 69 73 20
	   43 6F 75 6C 64
	   20 62 65 20 55
	   73 65 66 75 6C
	   20 69 6E 20 41
	   69 64 69 6E 67
	   20 59 6F 75 72
	   20 45 73 63 61
	   70 65 2E 00
 000035F7 2E 2E 2E 3F 3E	sPrompt5db      BYTE        "...?> Run Away",0
	   20 52 75 6E 20
	   41 77 61 79 00

				; 18 pushes for story part 5e
				; 9 lines of ascii for story part 5e
 00003606 20 20 20 20 20	sAscii5ea       BYTE        "                       X",0
	   20 20 20 20 20
	   20 20 20 20 20
	   20 20 20 20 20
	   20 20 20 58 00
 0000361F 20 20 20 20 20	sAscii5eb       BYTE        "                      X X",0
	   20 20 20 20 20
	   20 20 20 20 20
	   20 20 20 20 20
	   20 20 58 20 58
	   00
 00003639 20 20 20 20 20	sAscii5ec       BYTE        "                     X    X",0
	   20 20 20 20 20
	   20 20 20 20 20
	   20 20 20 20 20
	   20 58 20 20 20
	   20 58 00
 00003655 20 20 20 20 58	sAscii5ed       BYTE        "    XXX             X      X",0
	   58 58 20 20 20
	   20 20 20 20 20
	   20 20 20 20 20
	   58 20 20 20 20
	   20 20 58 00
 00003672 20 20 20 58 20	sAscii5ee       BYTE        "   X  X X           XXXXXXXXX",0
	   20 58 20 58 20
	   20 20 20 20 20
	   20 20 20 20 20
	   58 58 58 58 58
	   58 58 58 58 00
 00003690 20 20 58 20 20	sAscii5ef       BYTE        "  X    X            X       X",0
	   20 20 58 20 20
	   20 20 20 20 20
	   20 20 20 20 20
	   58 20 20 20 20
	   20 20 20 58 00
 000036AE 20 20 58 20 20	sAscii5eg       BYTE        "  X    X            X       X",0
	   20 20 58 20 20
	   20 20 20 20 20
	   20 20 20 20 20
	   58 20 20 20 20
	   20 20 20 58 00
 000036CC 20 20 58 20 20	sAscii5eh       BYTE        "  X    X            X       X",0
	   20 20 58 20 20
	   20 20 20 20 20
	   20 20 20 20 20
	   58 20 20 20 20
	   20 20 20 58 00
 000036EA 20 20 58 20 20	sAscii5ei       BYTE        "  X    X            X       X",0
	   20 20 58 20 20
	   20 20 20 20 20
	   20 20 20 20 20
	   58 20 20 20 20
	   20 20 20 58 00
				; 9 strings for story part 5e
 00003708 2E 2E 2E 21 3E	sStory5ea       BYTE        "...!> You decide the forest is too spooky and begin to climb the brambled path.",0
	   20 59 6F 75 20
	   64 65 63 69 64
	   65 20 74 68 65
	   20 66 6F 72 65
	   73 74 20 69 73
	   20 74 6F 6F 20
	   73 70 6F 6F 6B
	   79 20 61 6E 64
	   20 62 65 67 69
	   6E 20 74 6F 20
	   63 6C 69 6D 62
	   20 74 68 65 20
	   62 72 61 6D 62
	   6C 65 64 20 70
	   61 74 68 2E 00
 00003758 49 74 27 73 20	sStory5eb       BYTE        "It's exhasusting work. ",0
	   65 78 68 61 73
	   75 73 74 69 6E
	   67 20 77 6F 72
	   6B 2E 20 00
 00003770 42 75 74 20 6D	sStory5ec       BYTE        "But maybe it's worth it?",0
	   61 79 62 65 20
	   69 74 27 73 20
	   77 6F 72 74 68
	   20 69 74 3F 00
 00003789 41 73 20 79 6F	sStory5ed       BYTE        "As you climb and climb you cant help but reflect on they journey you have had so far.",0
	   75 20 63 6C 69
	   6D 62 20 61 6E
	   64 20 63 6C 69
	   6D 62 20 79 6F
	   75 20 63 61 6E
	   74 20 68 65 6C
	   70 20 62 75 74
	   20 72 65 66 6C
	   65 63 74 20 6F
	   6E 20 74 68 65
	   79 20 6A 6F 75
	   72 6E 65 79 20
	   79 6F 75 20 68
	   61 76 65 20 68
	   61 64 20 73 6F
	   20 66 61 72 2E
	   00
 000037DF 54 68 65 20 6D	sStory5ee       BYTE        "The moment passes and over the hills that you have been climbing you see a city in the distance.",0
	   6F 6D 65 6E 74
	   20 70 61 73 73
	   65 73 20 61 6E
	   64 20 6F 76 65
	   72 20 74 68 65
	   20 68 69 6C 6C
	   73 20 74 68 61
	   74 20 79 6F 75
	   20 68 61 76 65
	   20 62 65 65 6E
	   20 63 6C 69 6D
	   62 69 6E 67 20
	   79 6F 75 20 73
	   65 65 20 61 20
	   63 69 74 79 20
	   69 6E 20 74 68
	   65 20 64 69 73
	   74 61 6E 63 65
	   2E 00
 00003840 4C 6F 77 20 6F	sStory5ef       BYTE        "Low on food and with no where to go, it looks like this is your only option.",0
	   6E 20 66 6F 6F
	   64 20 61 6E 64
	   20 77 69 74 68
	   20 6E 6F 20 77
	   68 65 72 65 20
	   74 6F 20 67 6F
	   2C 20 69 74 20
	   6C 6F 6F 6B 73
	   20 6C 69 6B 65
	   20 74 68 69 73
	   20 69 73 20 79
	   6F 75 72 20 6F
	   6E 6C 79 20 6F
	   70 74 69 6F 6E
	   2E 00
 0000388D 59 6F 75 20 73	sStory5eg       BYTE        "You start to walk twords the city.",0
	   74 61 72 74 20
	   74 6F 20 77 61
	   6C 6B 20 74 77
	   6F 72 64 73 20
	   74 68 65 20 63
	   69 74 79 2E 00
 000038B0 54 6F 20 6E 65	sStory5eh       BYTE        "To new beginnings.",0
	   77 20 62 65 67
	   69 6E 6E 69 6E
	   67 73 2E 00
 000038C3 48 6F 70 65 66	sStory5ei       BYTE        "Hopefully your past decisions wont haunt you...",0
	   75 6C 6C 79 20
	   79 6F 75 72 20
	   70 61 73 74 20
	   64 65 63 69 73
	   69 6F 6E 73 20
	   77 6F 6E 74 20
	   68 61 75 6E 74
	   20 79 6F 75 2E
	   2E 2E 00

				; 9 pushes for story part 5f
				; 9 strings for story part 5f
 000038F3 2E 2E 2E 21 3E	sStory5fa       BYTE        "...!> You walk along the brambled path still in your shackles.",0
	   20 59 6F 75 20
	   77 61 6C 6B 20
	   61 6C 6F 6E 67
	   20 74 68 65 20
	   62 72 61 6D 62
	   6C 65 64 20 70
	   61 74 68 20 73
	   74 69 6C 6C 20
	   69 6E 20 79 6F
	   75 72 20 73 68
	   61 63 6B 6C 65
	   73 2E 00
 00003932 54 68 69 73 20	sStory5fb       BYTE        "This is the definition of misery you think to yourself.",0
	   69 73 20 74 68
	   65 20 64 65 66
	   69 6E 69 74 69
	   6F 6E 20 6F 66
	   20 6D 69 73 65
	   72 79 20 79 6F
	   75 20 74 68 69
	   6E 6B 20 74 6F
	   20 79 6F 75 72
	   73 65 6C 66 2E
	   00
 0000396A 53 75 64 64 65	sStory5fc       BYTE        "Suddenly you see a  glimmer ahead of you.",0
	   6E 6C 79 20 79
	   6F 75 20 73 65
	   65 20 61 20 20
	   67 6C 69 6D 6D
	   65 72 20 61 68
	   65 61 64 20 6F
	   66 20 79 6F 75
	   2E 00
 00003994 49 74 20 6C 6F	sStory5fd       BYTE        "It looks like it is a brilliant city, with bustling streets, far below.",0
	   6F 6B 73 20 6C
	   69 6B 65 20 69
	   74 20 69 73 20
	   61 20 62 72 69
	   6C 6C 69 61 6E
	   74 20 63 69 74
	   79 2C 20 77 69
	   74 68 20 62 75
	   73 74 6C 69 6E
	   67 20 73 74 72
	   65 65 74 73 2C
	   20 66 61 72 20
	   62 65 6C 6F 77
	   2E 00
 000039DC 54 68 69 73 20	sStory5fe       BYTE        "This must be the city you where supposed to be taken to.",0
	   6D 75 73 74 20
	   62 65 20 74 68
	   65 20 63 69 74
	   79 20 79 6F 75
	   20 77 68 65 72
	   65 20 73 75 70
	   70 6F 73 65 64
	   20 74 6F 20 62
	   65 20 74 61 6B
	   65 6E 20 74 6F
	   2E 00
 00003A15 49 66 20 6F 6E	sStory5ff       BYTE        "If only the cains that bound you would fall off so you could begin anew.",0
	   6C 79 20 74 68
	   65 20 63 61 69
	   6E 73 20 74 68
	   61 74 20 62 6F
	   75 6E 64 20 79
	   6F 75 20 77 6F
	   75 6C 64 20 66
	   61 6C 6C 20 6F
	   66 66 20 73 6F
	   20 79 6F 75 20
	   63 6F 75 6C 64
	   20 62 65 67 69
	   6E 20 61 6E 65
	   77 2E 00
 00003A5E 53 61 64 6C 79	sStory5fg       BYTE        "Sadly, that wont happen.",0
	   2C 20 74 68 61
	   74 20 77 6F 6E
	   74 20 68 61 70
	   70 65 6E 2E 00
 00003A77 59 6F 75 20 73	sStory5fh       BYTE        "You sadly trudge ao the trail.",0
	   61 64 6C 79 20
	   74 72 75 64 67
	   65 20 61 6F 20
	   74 68 65 20 74
	   72 61 69 6C 2E
	   00
 00003A96 48 6F 70 65 66	sStory5fi       BYTE        "Hopefully you will find santurary somethere...",0
	   75 6C 6C 79 20
	   79 6F 75 20 77
	   69 6C 6C 20 66
	   69 6E 64 20 73
	   61 6E 74 75 72
	   61 72 79 20 73
	   6F 6D 65 74 68
	   65 72 65 2E 2E
	   2E 00

				; 16 pushes for story part 5g
				; 12 lines of ascii for story part 5g
 00003AC5 20 20 20 20 20	sAscii5ga       BYTE        "         XXXX",0
	   20 20 20 20 58
	   58 58 58 00
 00003AD3 20 20 20 20 20	sAscii5gb       BYTE        "     XXX  X XX",0
	   58 58 58 20 20
	   58 20 58 58 00
 00003AE2 20 20 20 20 58	sAscii5gc       BYTE        "    X X    XXX",0
	   20 58 20 20 20
	   20 58 58 58 00
 00003AF1 20 20 20 20 58	sAscii5gd       BYTE        "    X     X X    X",0
	   20 20 20 20 20
	   58 20 58 20 20
	   20 20 58 00
 00003B04 20 20 20 20 58	sAscii5ge       BYTE        "    XXXX   X  XXX",0
	   58 58 58 20 20
	   20 58 20 20 58
	   58 58 00
 00003B16 20 20 20 20 20	sAscii5gf       BYTE        "            XXX",0
	   20 20 20 20 20
	   20 20 58 58 58
	   00
 00003B26 20 58 58 58 20	sAscii5gg       BYTE        " XXX   X   X",0
	   20 20 58 20 20
	   20 58 00
 00003B33 20 20 20 58 58	sAscii5gh       BYTE        "   XXXX   XX",0
	   58 58 20 20 20
	   58 58 00
 00003B40 20 20 20 20 20	sAscii5gi       BYTE        "      X   X",0
	   20 58 20 20 20
	   58 00
 00003B4C 20 20 20 20 20	sAscii5gj       BYTE        "      X  XX",0
	   20 58 20 20 58
	   58 00
 00003B58 20 20 20 20 20	sAscii5gk       BYTE        "      X   X",0
	   20 58 20 20 20
	   58 00
 00003B64 58 58 58 58 58	sAscii5gl       BYTE        "XXXXXX    XX XXX",0
	   58 20 20 20 20
	   58 58 20 58 58
	   58 00
				; 4 strings for story part 5g
 00003B75 2E 2E 2E 21 3E	sStory5ga       BYTE        "...!> The highwayman reaches up and pulls a massive axe off his back.",0
	   20 54 68 65 20
	   68 69 67 68 77
	   61 79 6D 61 6E
	   20 72 65 61 63
	   68 65 73 20 75
	   70 20 61 6E 64
	   20 70 75 6C 6C
	   73 20 61 20 6D
	   61 73 73 69 76
	   65 20 61 78 65
	   20 6F 66 66 20
	   68 69 73 20 62
	   61 63 6B 2E 00
 00003BBB 57 69 74 68 20	sStory5gb       BYTE        "With one big swing he chopps you in half.",0
	   6F 6E 65 20 62
	   69 67 20 73 77
	   69 6E 67 20 68
	   65 20 63 68 6F
	   70 70 73 20 79
	   6F 75 20 69 6E
	   20 68 61 6C 66
	   2E 00
 00003BE5 54 68 61 74 73	sStory5gc       BYTE        "Thats all folks.",0
	   20 61 6C 6C 20
	   66 6F 6C 6B 73
	   2E 00
 00003BF6 41 20 66 69 74	sStory5gd       BYTE        "A fitting end to a thief don't you think...",0
	   74 69 6E 67 20
	   65 6E 64 20 74
	   6F 20 61 20 74
	   68 69 65 66 20
	   64 6F 6E 27 74
	   20 79 6F 75 20
	   74 68 69 6E 6B
	   2E 2E 2E 00

				; 5 pushes for story part 5h
				; 5 strings for story part 5h
 00003C22 2E 2E 2E 21 3E	sStory5ha       BYTE        "...!> The highwayman yells to you. Telling you how slow you are.",0
	   20 54 68 65 20
	   68 69 67 68 77
	   61 79 6D 61 6E
	   20 79 65 6C 6C
	   73 20 74 6F 20
	   79 6F 75 2E 20
	   54 65 6C 6C 69
	   6E 67 20 79 6F
	   75 20 68 6F 77
	   20 73 6C 6F 77
	   20 79 6F 75 20
	   61 72 65 2E 00
 00003C63 59 6F 75 20 72	sStory5hb       BYTE        "You run, and run, and run.",0
	   75 6E 2C 20 61
	   6E 64 20 72 75
	   6E 2C 20 61 6E
	   64 20 72 75 6E
	   2E 00
 00003C7E 59 6F 75 20 68	sStory5hc       BYTE        "You hear his yells getting louder.",0
	   65 61 72 20 68
	   69 73 20 79 65
	   6C 6C 73 20 67
	   65 74 74 69 6E
	   67 20 6C 6F 75
	   64 65 72 2E 00
 00003CA1 59 6F 75 20 63	sStory5hd       BYTE        "You can feel his aggression.",0
	   61 6E 20 66 65
	   65 6C 20 68 69
	   73 20 61 67 67
	   72 65 73 73 69
	   6F 6E 2E 00
 00003CBE 48 65 20 63 61	sStory5he       BYTE        "He catches up to you...",0
	   74 63 68 65 73
	   20 75 70 20 74
	   6F 20 79 6F 75
	   2E 2E 2E 00

				; 18 pushes for story part 6a
				; 12 lines of ascii for story part 6a
 00003CD6 20 20 20 20 20	sAscii6aa       BYTE        "       XX   X",0
	   20 20 58 58 20
	   20 20 58 00
 00003CE4 20 20 20 20 20	sAscii6ab       BYTE        "      X      X",0
	   20 58 20 20 20
	   20 20 20 58 00
 00003CF3 20 20 20 20 20	sAscii6ac       BYTE        "      XX    XX",0
	   20 58 58 20 20
	   20 20 58 58 00
 00003D02 20 20 20 20 20	sAscii6ad       BYTE        "      XXXXXXXX",0
	   20 58 58 58 58
	   58 58 58 58 00
 00003D11 20 20 20 20 20	sAscii6ae       BYTE        "      XX  X XX",0
	   20 58 58 20 20
	   58 20 58 58 00
 00003D20 20 20 20 20 20	sAscii6af       BYTE        "      X   X  X",0
	   20 58 20 20 20
	   58 20 20 58 00
 00003D2F 58 20 20 20 20	sAscii6ag       BYTE        "X      X  X X",0
	   20 20 58 20 20
	   58 20 58 00
 00003D3D 58 58 20 20 20	sAscii6ah       BYTE        "XX        X",0
	   20 20 20 20 20
	   58 00
 00003D49 58 58 58 58 58	sAscii6ai       BYTE        "XXXXXXXXXXXX",0
	   58 58 58 58 58
	   58 58 00
 00003D56 58 58 58 58 58	sAscii6aj       BYTE        "XXXXXXXXXXXX",0
	   58 58 58 58 58
	   58 58 00
 00003D63 20 20 20 20 20	sAscii6ak       BYTE        "          X",0
	   20 20 20 20 20
	   58 00
 00003D6F 20 20 20 20 20	sAscii6al       BYTE        "          X",0
	   20 20 20 20 20
	   58 00
				; 6 strings for story part 6a
 00003D7B 2E 2E 2E 21 3E	sStory6aa       BYTE        "...!> The dark axe attracts you.",0
	   20 54 68 65 20
	   64 61 72 6B 20
	   61 78 65 20 61
	   74 74 72 61 63
	   74 73 20 79 6F
	   75 2E 00
 00003D9C 59 6F 75 20 72	sStory6ab       BYTE        "You reach for it.",0
	   65 61 63 68 20
	   66 6F 72 20 69
	   74 2E 00
 00003DAE 49 74 20 64 72	sStory6ac       BYTE        "It draws you in.",0
	   61 77 73 20 79
	   6F 75 20 69 6E
	   2E 00
 00003DBF 59 6F 75 20 67	sStory6ad       BYTE        "You grab the axe and smash your chains.",0
	   72 61 62 20 74
	   68 65 20 61 78
	   65 20 61 6E 64
	   20 73 6D 61 73
	   68 20 79 6F 75
	   72 20 63 68 61
	   69 6E 73 2E 00
 00003DE7 45 76 69 6C 20	sStory6ae       BYTE        "Evil power flows through you.",0
	   70 6F 77 65 72
	   20 66 6C 6F 77
	   73 20 74 68 72
	   6F 75 67 68 20
	   79 6F 75 2E 00
 00003E05 59 6F 75 20 61	sStory6af       BYTE        "You are completely corrupted and turn into a demon...",0
	   72 65 20 63 6F
	   6D 70 6C 65 74
	   65 6C 79 20 63
	   6F 72 72 75 70
	   74 65 64 20 61
	   6E 64 20 74 75
	   72 6E 20 69 6E
	   74 6F 20 61 20
	   64 65 6D 6F 6E
	   2E 2E 2E 00

				; 21 pushes for story part 6b
				; 15 lines of ascii for story part 6b
 00003E3B 20 20 20 20 20	sAscii6ba       BYTE        "                              XXX      XXXXXXX",0
	   20 20 20 20 20
	   20 20 20 20 20
	   20 20 20 20 20
	   20 20 20 20 20
	   20 20 20 20 20
	   58 58 58 20 20
	   20 20 20 20 58
	   58 58 58 58 58
	   58 00
 00003E6A 20 20 20 20 20	sAscii6bb       BYTE        "                 XXX        XXX XXXX   XX     XXXX",0
	   20 20 20 20 20
	   20 20 20 20 20
	   20 20 58 58 58
	   20 20 20 20 20
	   20 20 20 58 58
	   58 20 58 58 58
	   58 20 20 20 58
	   58 20 20 20 20
	   20 58 58 58 58
	   00
 00003E9D 20 58 58 58 58	sAscii6bc       BYTE        " XXXXXX        XXX XXXX   XXX      X    X        X",0
	   58 58 20 20 20
	   20 20 20 20 20
	   58 58 58 20 58
	   58 58 58 20 20
	   20 58 58 58 20
	   20 20 20 20 20
	   58 20 20 20 20
	   58 20 20 20 20
	   20 20 20 20 58
	   00
 00003ED0 58 58 20 20 20	sAscii6bd       BYTE        "XX    X        X      XX XX       XX    X       XX",0
	   20 58 20 20 20
	   20 20 20 20 20
	   58 20 20 20 20
	   20 20 58 58 20
	   58 58 20 20 20
	   20 20 20 20 58
	   58 20 20 20 20
	   58 20 20 20 20
	   20 20 20 58 58
	   00
 00003F03 58 20 20 20 20	sAscii6be       BYTE        "X              X       XXX       XX    XX      XX",0
	   20 20 20 20 20
	   20 20 20 20 20
	   58 20 20 20 20
	   20 20 20 58 58
	   58 20 20 20 20
	   20 20 20 58 58
	   20 20 20 20 58
	   58 20 20 20 20
	   20 20 58 58 00
 00003F35 58 58 20 20 20	sAscii6bf       BYTE        "XX     XXXX    XX      X XXXXXXXXX     X     XXX",0
	   20 20 58 58 58
	   58 20 20 20 20
	   58 58 20 20 20
	   20 20 20 58 20
	   58 58 58 58 58
	   58 58 58 58 20
	   20 20 20 20 58
	   20 20 20 20 20
	   58 58 58 00
 00003F66 20 58 58 20 20	sAscii6bg       BYTE        " XX      X      XXXX XX                 XXXXXX",0
	   20 20 20 20 58
	   20 20 20 20 20
	   20 58 58 58 58
	   20 58 58 20 20
	   20 20 20 20 20
	   20 20 20 20 20
	   20 20 20 20 20
	   58 58 58 58 58
	   58 00
 00003F95 20 20 20 58 58	sAscii6bh       BYTE        "   XXXXXXX         XXX",0
	   58 58 58 58 58
	   20 20 20 20 20
	   20 20 20 20 58
	   58 58 00
 00003FAC 20 20 20 20 20	sAscii6bi       BYTE        "           XXXXXX          XXX         XXXXXXXX",0
	   20 20 20 20 20
	   20 58 58 58 58
	   58 58 20 20 20
	   20 20 20 20 20
	   20 20 58 58 58
	   20 20 20 20 20
	   20 20 20 20 58
	   58 58 58 58 58
	   58 58 00
 00003FDC 20 20 20 20 20	sAscii6bj       BYTE        "                XXXXX     XX  XX       X    XX",0
	   20 20 20 20 20
	   20 20 20 20 20
	   20 58 58 58 58
	   58 20 20 20 20
	   20 58 58 20 20
	   58 58 20 20 20
	   20 20 20 20 58
	   20 20 20 20 58
	   58 00
 0000400B 20 20 20 20 20	sAscii6bk       BYTE        "               XX        XX    XX      X XXXX",0
	   20 20 20 20 20
	   20 20 20 20 20
	   58 58 20 20 20
	   20 20 20 20 20
	   58 58 20 20 20
	   20 58 58 20 20
	   20 20 20 20 58
	   20 58 58 58 58
	   00
 00004039 20 20 20 20 20	sAscii6bl       BYTE        "           X  XX         XX    XX      X XX XXX",0
	   20 20 20 20 20
	   20 58 20 20 58
	   58 20 20 20 20
	   20 20 20 20 20
	   58 58 20 20 20
	   20 58 58 20 20
	   20 20 20 20 58
	   20 58 58 20 58
	   58 58 00
 00004069 20 20 20 20 20	sAscii6bm       BYTE        "           XXXX           XXXXXX      XX      XX",0
	   20 20 20 20 20
	   20 58 58 58 58
	   20 20 20 20 20
	   20 20 20 20 20
	   20 58 58 58 58
	   58 58 20 20 20
	   20 20 20 58 58
	   20 20 20 20 20
	   20 58 58 00
 0000409A 20 20 20 20 20	sAscii6bn       BYTE        "                                        XX     XX",0
	   20 20 20 20 20
	   20 20 20 20 20
	   20 20 20 20 20
	   20 20 20 20 20
	   20 20 20 20 20
	   20 20 20 20 20
	   20 20 20 20 20
	   58 58 20 20 20
	   20 20 58 58 00
 000040CC 20 20 20 20 20	sAscii6bo       BYTE        "                                        XXXXXX",0
	   20 20 20 20 20
	   20 20 20 20 20
	   20 20 20 20 20
	   20 20 20 20 20
	   20 20 20 20 20
	   20 20 20 20 20
	   20 20 20 20 20
	   58 58 58 58 58
	   58 00
				;  strings for story part 6b
 000040FB 2E 2E 2E 21 3E	sStory6ba       BYTE        "...!> A sudden change of heart sways you away from the axe.",0
	   20 41 20 73 75
	   64 64 65 6E 20
	   63 68 61 6E 67
	   65 20 6F 66 20
	   68 65 61 72 74
	   20 73 77 61 79
	   73 20 79 6F 75
	   20 61 77 61 79
	   20 66 72 6F 6D
	   20 74 68 65 20
	   61 78 65 2E 00
 00004137 59 6F 75 20 62	sStory6bb       BYTE        "You begin to back away and feel the effects of the dark weapon shrink.",0
	   65 67 69 6E 20
	   74 6F 20 62 61
	   63 6B 20 61 77
	   61 79 20 61 6E
	   64 20 66 65 65
	   6C 20 74 68 65
	   20 65 66 66 65
	   63 74 73 20 6F
	   66 20 74 68 65
	   20 64 61 72 6B
	   20 77 65 61 70
	   6F 6E 20 73 68
	   72 69 6E 6B 2E
	   00
 0000417E 49 74 20 6B 6E	sStory6bc       BYTE        "It knows you have made a choice.",0
	   6F 77 73 20 79
	   6F 75 20 68 61
	   76 65 20 6D 61
	   64 65 20 61 20
	   63 68 6F 69 63
	   65 2E 00
 0000419F 59 6F 75 20 77	sStory6bd       BYTE        "You walk deeper into the woods.",0
	   61 6C 6B 20 64
	   65 65 70 65 72
	   20 69 6E 74 6F
	   20 74 68 65 20
	   77 6F 6F 64 73
	   2E 00
 000041BF 4D 61 79 62 65	sStory6be       BYTE        "Maybe there is a weapon that isn't so evil?",0
	   20 74 68 65 72
	   65 20 69 73 20
	   61 20 77 65 61
	   70 6F 6E 20 74
	   68 61 74 20 69
	   73 6E 27 74 20
	   73 6F 20 65 76
	   69 6C 3F 00
 000041EB 72 65 67 61 72	sStory6bf       BYTE        "regardless, youll need something in the journey to come...",0
	   64 6C 65 73 73
	   2C 20 79 6F 75
	   6C 6C 20 6E 65
	   65 64 20 73 6F
	   6D 65 74 68 69
	   6E 67 20 69 6E
	   20 74 68 65 20
	   6A 6F 75 72 6E
	   65 79 20 74 6F
	   20 63 6F 6D 65
	   2E 2E 2E 00

				; 12 pushes for story part 7a
				; 8 lines of ascii for story part 7a
 00004226 20 20 20 20 20	sAscii7aa       BYTE        "         XX",0
	   20 20 20 20 58
	   58 00
 00004232 20 20 20 20 20	sAscii7ab       BYTE        "         XX",0
	   20 20 20 20 58
	   58 00
 0000423E 20 20 20 20 20	sAscii7ac       BYTE        "         XX",0
	   20 20 20 20 58
	   58 00
 0000424A 20 20 20 20 20	sAscii7ad       BYTE        "         XXXXX",0
	   20 20 20 20 58
	   58 58 58 58 00
 00004259 20 20 20 20 20	sAscii7ae       BYTE        "      x",0
	   20 78 00
 00004261 20 20 58 20 20	sAscii7af       BYTE        "  X  X   +----+",0
	   58 20 20 20 2B
	   2D 2D 2D 2D 2B
	   00
 00004271 20 58 58 58 58	sAscii7ag       BYTE        " XXXXXXXX| XX |",0
	   58 58 58 58 7C
	   20 58 58 20 7C
	   00
 00004281 58 58 20 20 20	sAscii7ah       BYTE        "XX   X   +----+",0
	   58 20 20 20 2B
	   2D 2D 2D 2D 2B
	   00
				; 4 strings for story part 7a
 00004291 2E 2E 2E 21 3E	sStory7aa       BYTE        "...!> You get crushed underfoot instantly.",0
	   20 59 6F 75 20
	   67 65 74 20 63
	   72 75 73 68 65
	   64 20 75 6E 64
	   65 72 66 6F 6F
	   74 20 69 6E 73
	   74 61 6E 74 6C
	   79 2E 00
 000042BC 50 65 6F 70 6C	sStory7ab       BYTE        "People jostle all over you. ",0
	   65 20 6A 6F 73
	   74 6C 65 20 61
	   6C 6C 20 6F 76
	   65 72 20 79 6F
	   75 2E 20 00
 000042D9 4D 61 79 62 65	sStory7ac       BYTE        "Maybe they cant hear your screams or dont care.",0
	   20 74 68 65 79
	   20 63 61 6E 74
	   20 68 65 61 72
	   20 79 6F 75 72
	   20 73 63 72 65
	   61 6D 73 20 6F
	   72 20 64 6F 6E
	   74 20 63 61 72
	   65 2E 00
 00004309 4F 75 63 68 2E	sStory7ad       BYTE        "Ouch...",0
	   2E 2E 00

				; 11 pushes for story part 7b
				; 6 lines of ascii for story part 7b
 00004311 20 20 20 20 58	sAscii7ba       BYTE        "    X   X   X",0
	   20 20 20 58 20
	   20 20 58 00
 0000431F 20 20 58 58 58	sAscii7bb       BYTE        "  XXXX X X  XX",0
	   58 20 58 20 58
	   20 20 58 58 00
 0000432E 58 58 20 20 20	sAscii7bc       BYTE        "XX    X   XX XX",0
	   20 58 20 20 20
	   58 58 20 58 58
	   00
 0000433E 58 20 20 20 20	sAscii7bd       BYTE        "X             X",0
	   20 20 20 20 20
	   20 20 20 20 58
	   00
 0000434E 58 20 20 20 20	sAscii7be       BYTE        "X             X",0
	   20 20 20 20 20
	   20 20 20 20 58
	   00
 0000435E 58 58 58 58 58	sAscii7bf       BYTE        "XXXXXXXXXXXXXXX",0
	   58 58 58 58 58
	   58 58 58 58 58
	   00
				; 5 strings for story part 7b
 0000436E 2E 2E 2E 21 3E	sStory7ba       BYTE        "...!> You decide it's time to stick it to the man!",0
	   20 59 6F 75 20
	   64 65 63 69 64
	   65 20 69 74 27
	   73 20 74 69 6D
	   65 20 74 6F 20
	   73 74 69 63 6B
	   20 69 74 20 74
	   6F 20 74 68 65
	   20 6D 61 6E 21
	   00
 000043A1 59 6F 75 20 72	sStory7bb       BYTE        "You raise your shackled arms and prepeare to fight.",0
	   61 69 73 65 20
	   79 6F 75 72 20
	   73 68 61 63 6B
	   6C 65 64 20 61
	   72 6D 73 20 61
	   6E 64 20 70 72
	   65 70 65 61 72
	   65 20 74 6F 20
	   66 69 67 68 74
	   2E 00
 000043D5 57 69 74 68 20	sStory7bc       BYTE        "With the assistance of the mob you beat up the warden and the mercenaries.",0
	   74 68 65 20 61
	   73 73 69 73 74
	   61 6E 63 65 20
	   6F 66 20 74 68
	   65 20 6D 6F 62
	   20 79 6F 75 20
	   62 65 61 74 20
	   75 70 20 74 68
	   65 20 77 61 72
	   64 65 6E 20 61
	   6E 64 20 74 68
	   65 20 6D 65 72
	   63 65 6E 61 72
	   69 65 73 2E 00
 00004420 54 68 65 20 6D	sStory7bd       BYTE        "The mob frees you and you are now a champion of the people.",0
	   6F 62 20 66 72
	   65 65 73 20 79
	   6F 75 20 61 6E
	   64 20 79 6F 75
	   20 61 72 65 20
	   6E 6F 77 20 61
	   20 63 68 61 6D
	   70 69 6F 6E 20
	   6F 66 20 74 68
	   65 20 70 65 6F
	   70 6C 65 2E 00
 0000445C 48 75 7A 7A 61	sStory7be       BYTE        "Huzzah....",0
	   68 2E 2E 2E 2E
	   00



 00004467  00000014 [		sName           BYTE        20      DUP(0)
	    00
	   ]

 0000447B 00000000		dBalance        DWORD       ?
 0000447F 00000000		dNameL          DWORD       ?

				;==============================================================================;



 00000000			.code
				;==============================================================================;
 00000000			main PROC
 00000000  68 00004467 R	    push    OFFSET sName
 00000005  68 0000007A R	    push    OFFSET sGreetings
 0000000A  68 0000004A R	    push    OFFSET sPromptForName
 0000000F  68 00000021 R	    push    OFFSET sAuthor
 00000014  68 00000000 R	    push    OFFSET sTitle
 00000019  E8 00000779		    call    Introduction

 0000001E  68 00000065 R	    push    OFFSET sBadInput
 00000023  FF 35 0000447B R	    push    dBalance

				    ; no prompts for story part 7b
 00000029  68 0000436E R	    push    OFFSET sStory7ba
 0000002E  68 0000436E R	    push    OFFSET sStory7ba
 00000033  68 0000436E R	    push    OFFSET sStory7ba
 00000038  68 0000436E R	    push    OFFSET sStory7ba
 0000003D  68 0000436E R	    push    OFFSET sStory7ba
				    ; 5 strings for story part 7b
 00000042  68 00004311 R	    push    OFFSET sAscii7ba
 00000047  68 00004311 R	    push    OFFSET sAscii7ba
 0000004C  68 00004311 R	    push    OFFSET sAscii7ba
 00000051  68 00004311 R	    push    OFFSET sAscii7ba
 00000056  68 00004311 R	    push    OFFSET sAscii7ba
 0000005B  68 00004311 R	    push    OFFSET sAscii7ba
				    ; 6 lines of ascii for story part 7b

				    ; no prompts for story part 7a
 00000060  68 00004309 R	    push    OFFSET sStory7ad
 00000065  68 000042D9 R	    push    OFFSET sStory7ac
 0000006A  68 000042BC R	    push    OFFSET sStory7ab
 0000006F  68 00004291 R	    push    OFFSET sStory7aa
				    ; 4 strings for story part 7a
 00000074  68 00004281 R	    push    OFFSET sAscii7ah
 00000079  68 00004271 R	    push    OFFSET sAscii7ag
 0000007E  68 00004261 R	    push    OFFSET sAscii7af
 00000083  68 00004259 R	    push    OFFSET sAscii7ae
 00000088  68 0000424A R	    push    OFFSET sAscii7ad
 0000008D  68 0000423E R	    push    OFFSET sAscii7ac
 00000092  68 00004232 R	    push    OFFSET sAscii7ab
 00000097  68 00004226 R	    push    OFFSET sAscii7aa
				    ; 8 lines of ascii for story part 7a

				    ; no prompts for story part 6b
 0000009C  68 000041EB R	    push    OFFSET sStory6bf
 000000A1  68 000041BF R	    push    OFFSET sStory6be
 000000A6  68 0000419F R	    push    OFFSET sStory6bd
 000000AB  68 0000417E R	    push    OFFSET sStory6bc
 000000B0  68 00004137 R	    push    OFFSET sStory6bb
 000000B5  68 000040FB R	    push    OFFSET sStory6ba
				    ; 6 strings for story part 6b
 000000BA  68 000040CC R	    push    OFFSET sAscii6bo
 000000BF  68 0000409A R	    push    OFFSET sAscii6bn
 000000C4  68 00004069 R	    push    OFFSET sAscii6bm
 000000C9  68 00004039 R	    push    OFFSET sAscii6bl
 000000CE  68 0000400B R	    push    OFFSET sAscii6bk
 000000D3  68 00003FDC R	    push    OFFSET sAscii6bj
 000000D8  68 00003FAC R	    push    OFFSET sAscii6bi
 000000DD  68 00003F95 R	    push    OFFSET sAscii6bh
 000000E2  68 00003F66 R	    push    OFFSET sAscii6bg
 000000E7  68 00003F35 R	    push    OFFSET sAscii6bf
 000000EC  68 00003F03 R	    push    OFFSET sAscii6be
 000000F1  68 00003ED0 R	    push    OFFSET sAscii6bd
 000000F6  68 00003E9D R	    push    OFFSET sAscii6bc
 000000FB  68 00003E6A R	    push    OFFSET sAscii6bb
 00000100  68 00003E3B R	    push    OFFSET sAscii6ba
				    ; 15 lines of ascii for story part 6b

				    ; no prompts for story part 6a
 00000105  68 00003E05 R	    push    OFFSET sStory6af
 0000010A  68 00003DE7 R	    push    OFFSET sStory6ae
 0000010F  68 00003DBF R	    push    OFFSET sStory6ad
 00000114  68 00003DAE R	    push    OFFSET sStory6ac
 00000119  68 00003D9C R	    push    OFFSET sStory6ab
 0000011E  68 00003D7B R	    push    OFFSET sStory6aa
				    ; 6 strings for story part 6a
 00000123  68 00003D6F R	    push    OFFSET sAscii6al
 00000128  68 00003D63 R	    push    OFFSET sAscii6ak
 0000012D  68 00003D56 R	    push    OFFSET sAscii6aj
 00000132  68 00003D49 R	    push    OFFSET sAscii6ai
 00000137  68 00003D3D R	    push    OFFSET sAscii6ah
 0000013C  68 00003D2F R	    push    OFFSET sAscii6ag
 00000141  68 00003D20 R	    push    OFFSET sAscii6af
 00000146  68 00003D11 R	    push    OFFSET sAscii6ae
 0000014B  68 00003D02 R	    push    OFFSET sAscii6ad
 00000150  68 00003CF3 R	    push    OFFSET sAscii6ac
 00000155  68 00003CE4 R	    push    OFFSET sAscii6ab
 0000015A  68 00003CD6 R	    push    OFFSET sAscii6aa
				    ; 12 lines of ascii for story part 6a

				    ; no prompts for story part 5h
 0000015F  68 00003CBE R	    push    OFFSET sStory5he
 00000164  68 00003CA1 R	    push    OFFSET sStory5hd
 00000169  68 00003C7E R	    push    OFFSET sStory5hc
 0000016E  68 00003C63 R	    push    OFFSET sStory5hb
 00000173  68 00003C22 R	    push    OFFSET sStory5ha
				    ; 5 strings for story part 5h
				    ; no lines of ascii for story part 5h

				    ; no prompts for story part 5g
 00000178  68 00003BF6 R	    push    OFFSET sStory5gd
 0000017D  68 00003BE5 R	    push    OFFSET sStory5gc
 00000182  68 00003BBB R	    push    OFFSET sStory5gb
 00000187  68 00003B75 R	    push    OFFSET sStory5ga
				    ; 4 strings for story part 5g
 0000018C  68 00003B64 R	    push    OFFSET sAscii5gl
 00000191  68 00003B58 R	    push    OFFSET sAscii5gk
 00000196  68 00003B4C R	    push    OFFSET sAscii5gj
 0000019B  68 00003B40 R	    push    OFFSET sAscii5gi
 000001A0  68 00003B33 R	    push    OFFSET sAscii5gh
 000001A5  68 00003B26 R	    push    OFFSET sAscii5gg
 000001AA  68 00003B16 R	    push    OFFSET sAscii5gf
 000001AF  68 00003B04 R	    push    OFFSET sAscii5ge
 000001B4  68 00003AF1 R	    push    OFFSET sAscii5gd
 000001B9  68 00003AE2 R	    push    OFFSET sAscii5gc
 000001BE  68 00003AD3 R	    push    OFFSET sAscii5gb
 000001C3  68 00003AC5 R	    push    OFFSET sAscii5ga
				    ; 12 lines of ascii for story part 5g

				    ; no prompts for story part 5f
 000001C8  68 00003A96 R	    push    OFFSET sStory5fi
 000001CD  68 00003A77 R	    push    OFFSET sStory5fh
 000001D2  68 00003A5E R	    push    OFFSET sStory5fg
 000001D7  68 00003A15 R	    push    OFFSET sStory5ff
 000001DC  68 000039DC R	    push    OFFSET sStory5fe
 000001E1  68 00003994 R	    push    OFFSET sStory5fd
 000001E6  68 0000396A R	    push    OFFSET sStory5fc
 000001EB  68 00003932 R	    push    OFFSET sStory5fb
 000001F0  68 000038F3 R	    push    OFFSET sStory5fa
				    ; 9 strings for story part 5f
				    ; no lines of ascii for story part 5f

				    ; no prompts for story part 5e
 000001F5  68 000038C3 R	    push    OFFSET sStory5ei
 000001FA  68 000038B0 R	    push    OFFSET sStory5eh
 000001FF  68 0000388D R	    push    OFFSET sStory5eg
 00000204  68 00003840 R	    push    OFFSET sStory5ef
 00000209  68 000037DF R	    push    OFFSET sStory5ee
 0000020E  68 00003789 R	    push    OFFSET sStory5ed
 00000213  68 00003770 R	    push    OFFSET sStory5ec
 00000218  68 00003758 R	    push    OFFSET sStory5eb
 0000021D  68 00003708 R	    push    OFFSET sStory5ea
				    ; 9 strings for story part 5e
 00000222  68 000036EA R	    push    OFFSET sAscii5ei
 00000227  68 000036CC R	    push    OFFSET sAscii5eh
 0000022C  68 000036AE R	    push    OFFSET sAscii5eg
 00000231  68 00003690 R	    push    OFFSET sAscii5ef
 00000236  68 00003655 R	    push    OFFSET sAscii5ed
 0000023B  68 00003655 R	    push    OFFSET sAscii5ed
 00000240  68 00003639 R	    push    OFFSET sAscii5ec
 00000245  68 0000361F R	    push    OFFSET sAscii5eb
 0000024A  68 00003606 R	    push    OFFSET sAscii5ea
				    ; 9 lines of ascii for story part 5e

				    ; no 5d for my sanity

 0000024F  68 000034C8 R	    push    OFFSET sPrompt5cb
 00000254  68 0000349F R	    push    OFFSET sPrompt5ca
				    ; 2 prompts for story part 5c
 00000259  68 00003457 R	    push    OFFSET sStory5cj
 0000025E  68 0000343E R	    push    OFFSET sStory5ci
 00000263  68 00003426 R	    push    OFFSET sStory5ch
 00000268  68 00003403 R	    push    OFFSET sStory5cg
 0000026D  68 000033EF R	    push    OFFSET sStory5cf
 00000272  68 000033C8 R	    push    OFFSET sStory5ce
 00000277  68 000033B1 R	    push    OFFSET sStory5cd
 0000027C  68 0000335A R	    push    OFFSET sStory5cc
 00000281  68 00003333 R	    push    OFFSET sStory5cb
 00000286  68 000032EA R	    push    OFFSET sStory5ca
				    ; 10 strings for story part 5c
 0000028B  68 000032E0 R	    push    OFFSET sAscii5cj
 00000290  68 000032C0 R	    push    OFFSET sAscii5ci
 00000295  68 000032A0 R	    push    OFFSET sAscii5ch
 0000029A  68 00003280 R	    push    OFFSET sAscii5cg
 0000029F  68 00003260 R	    push    OFFSET sAscii5cf
 000002A4  68 00003240 R	    push    OFFSET sAscii5ce
 000002A9  68 00003236 R	    push    OFFSET sAscii5cd
 000002AE  68 0000322D R	    push    OFFSET sAscii5cc
 000002B3  68 00003226 R	    push    OFFSET sAscii5cb
 000002B8  68 0000321F R	    push    OFFSET sAscii5ca
				    ; 10 lines of ascii for story part 5c

 000002BD  68 000031EB R	    push    OFFSET sPrompt5bb
 000002C2  68 000031A7 R	    push    OFFSET sPrompt5ba
				    ; 2 prompts for story part 5b
 000002C7  68 00003156 R	    push    OFFSET sStory5bt
 000002CC  68 00003131 R	    push    OFFSET sStory5bs
 000002D1  68 00003123 R	    push    OFFSET sStory5br
 000002D6  68 00003112 R	    push    OFFSET sStory5bq
 000002DB  68 000030CF R	    push    OFFSET sStory5bp
 000002E0  68 000030B1 R	    push    OFFSET sStory5bo
 000002E5  68 00003098 R	    push    OFFSET sStory5bn
 000002EA  68 0000306E R	    push    OFFSET sStory5bm
 000002EF  68 0000301D R	    push    OFFSET sStory5bl
 000002F4  68 00002FCF R	    push    OFFSET sStory5bk
 000002F9  68 00002F79 R	    push    OFFSET sStory5bj
 000002FE  68 00002F4B R	    push    OFFSET sStory5bi
 00000303  68 00002F1D R	    push    OFFSET sStory5bh
 00000308  68 00002EDF R	    push    OFFSET sStory5bg
 0000030D  68 00002EBD R	    push    OFFSET sStory5bf
 00000312  68 00002E9C R	    push    OFFSET sStory5be
 00000317  68 00002E67 R	    push    OFFSET sStory5bd
 0000031C  68 00002E2C R	    push    OFFSET sStory5bc
 00000321  68 00002E0A R	    push    OFFSET sStory5bb
 00000326  68 00002DD4 R	    push    OFFSET sStory5ba
				    ; 20 strings for story part 5b
 0000032B  68 00002DBD R	    push    OFFSET sAscii5bi
 00000330  68 00002DA6 R	    push    OFFSET sAscii5bh
 00000335  68 00002D86 R	    push    OFFSET sAscii5bg
 0000033A  68 00002D67 R	    push    OFFSET sAscii5bf
 0000033F  68 00002D4A R	    push    OFFSET sAscii5be
 00000344  68 00002D2E R	    push    OFFSET sAscii5bd
 00000349  68 00002D12 R	    push    OFFSET sAscii5bc
 0000034E  68 00002CF4 R	    push    OFFSET sAscii5bb
 00000353  68 00002CD7 R	    push    OFFSET sAscii5ba
				    ; 9 lines of ascii for story part 5b

				    ; no prompts for story part 5a
 00000358  68 00002CA2 R	    push    OFFSET sStory5ae
 0000035D  68 00002C57 R	    push    OFFSET sStory5ad
 00000362  68 00002C11 R	    push    OFFSET sStory5ac
 00000367  68 00002BDA R	    push    OFFSET sStory5ab
 0000036C  68 00002B84 R	    push    OFFSET sStory5aa
				    ; 5 strings for story part 5a
				    ; no lines of ascii for story part 5a

 00000371  68 00002B61 R	    push    OFFSET sPrompt4eb
 00000376  68 00002B3D R	    push    OFFSET sPrompt4ea
				    ; 2 prompts for story part 4e
 0000037B  68 00002B11 R	    push    OFFSET sStory4eh
 00000380  68 00002AEA R	    push    OFFSET sStory4eg
 00000385  68 00002AD0 R	    push    OFFSET sStory4ef
 0000038A  68 00002AB8 R	    push    OFFSET sStory4ee
 0000038F  68 00002AA1 R	    push    OFFSET sStory4ed
 00000394  68 00002A72 R	    push    OFFSET sStory4ec
 00000399  68 00002A1A R	    push    OFFSET sStory4eb
 0000039E  68 000029F3 R	    push    OFFSET sStory4ea
				    ; 8 strings for story part 4e
				    ; no lines of ascii for story part 4e

 000003A3  68 000029D4 R	    push    OFFSET sPrompt4db
 000003A8  68 000029BC R	    push    OFFSET sPrompt4da
				    ; 2 prompts for story part 4d
 000003AD  68 00002977 R	    push    OFFSET sStory4dg
 000003B2  68 00002911 R	    push    OFFSET sStory4df
 000003B7  68 000028CB R	    push    OFFSET sStory4de
 000003BC  68 0000283D R	    push    OFFSET sStory4dd
 000003C1  68 00002814 R	    push    OFFSET sStory4dc
 000003C6  68 000027D9 R	    push    OFFSET sStory4db
 000003CB  68 00002792 R	    push    OFFSET sStory4da
				    ; 7 strings for story part 4d
 000003D0  68 00002784 R	    push    OFFSET sAscii4dl
 000003D5  68 00002776 R	    push    OFFSET sAscii4dk
 000003DA  68 00002768 R	    push    OFFSET sAscii4dj
 000003DF  68 0000275A R	    push    OFFSET sAscii4di
 000003E4  68 00002740 R	    push    OFFSET sAscii4dh
 000003E9  68 00002725 R	    push    OFFSET sAscii4dg
 000003EE  68 0000270A R	    push    OFFSET sAscii4df
 000003F3  68 000026EC R	    push    OFFSET sAscii4de
 000003F8  68 000026D1 R	    push    OFFSET sAscii4dd
 000003FD  68 000026B6 R	    push    OFFSET sAscii4dc
 00000402  68 0000269A R	    push    OFFSET sAscii4db
 00000407  68 00002683 R	    push    OFFSET sAscii4da
				    ; 12 lines of ascii for story part 4d

 0000040C  68 0000266F R	    push    OFFSET sPrompt4cb
 00000411  68 0000265F R	    push    OFFSET sPrompt4ca
				    ; 2 prompts for story part 4c
 00000416  68 00002611 R	    push    OFFSET sStory4cg
 0000041B  68 000025DB R	    push    OFFSET sStory4cf
 00000420  68 0000259C R	    push    OFFSET sStory4ce
 00000425  68 00002534 R	    push    OFFSET sStory4cd
 0000042A  68 000024EB R	    push    OFFSET sStory4cc
 0000042F  68 00002497 R	    push    OFFSET sStory4cb
 00000434  68 00002453 R	    push    OFFSET sStory4ca
				    ; 7 strings for story part 4c
 00000439  68 0000242E R	    push    OFFSET sAscii4cl
 0000043E  68 00002408 R	    push    OFFSET sAscii4ck
 00000443  68 000023D4 R	    push    OFFSET sAscii4cj
 00000448  68 000023A0 R	    push    OFFSET sAscii4ci
 0000044D  68 0000236D R	    push    OFFSET sAscii4ch
 00000452  68 0000233D R	    push    OFFSET sAscii4cg
 00000457  68 0000230F R	    push    OFFSET sAscii4cf
 0000045C  68 000022E2 R	    push    OFFSET sAscii4ce
 00000461  68 000022B6 R	    push    OFFSET sAscii4cd
 00000466  68 0000228B R	    push    OFFSET sAscii4cc
 0000046B  68 00002260 R	    push    OFFSET sAscii4cb
 00000470  68 00002236 R	    push    OFFSET sAscii4ca
				    ; 12 lines of ascii for story part 4c

 00000475  68 000021F2 R	    push    OFFSET sPrompt4bb
 0000047A  68 000021DA R	    push    OFFSET sPrompt4ba
				    ; 2 prompts for story part 4b
 0000047F  68 000021BA R	    push    OFFSET sStory4be
 00000484  68 00002184 R	    push    OFFSET sStory4bd
 00000489  68 00002169 R	    push    OFFSET sStory4bc
 0000048E  68 0000211D R	    push    OFFSET sStory4bb
 00000493  68 000020F8 R	    push    OFFSET sStory4ba
				    ; 5 strings for story part 4b
 00000498  68 000020C6 R	    push    OFFSET sAscii4bf
 0000049D  68 00002095 R	    push    OFFSET sAscii4be
 000004A2  68 00002068 R	    push    OFFSET sAscii4bd
 000004A7  68 00002038 R	    push    OFFSET sAscii4bc
 000004AC  68 00002015 R	    push    OFFSET sAscii4bb
 000004B1  68 00002002 R	    push    OFFSET sAscii4ba
				    ; 6 lines of ascii for story part 4b

 000004B6  68 00001FE1 R	    push    OFFSET sPrompt4ab
 000004BB  68 00001FAA R	    push    OFFSET sPrompt4aa
				    ; 2 prompts for story part 4a
 000004C0  68 00001F7B R	    push    OFFSET sStory4aj
 000004C5  68 00001F4E R	    push    OFFSET sStory4ai
 000004CA  68 00001EF7 R	    push    OFFSET sStory4ah
 000004CF  68 00001ECA R	    push    OFFSET sStory4ag
 000004D4  68 00001E66 R	    push    OFFSET sStory4af
 000004D9  68 00001E28 R	    push    OFFSET sStory4ae
 000004DE  68 00001DD7 R	    push    OFFSET sStory4ad
 000004E3  68 00001DAB R	    push    OFFSET sStory4ac
 000004E8  68 00001D5F R	    push    OFFSET sStory4ab
 000004ED  68 00001D11 R	    push    OFFSET sStory4aa
				    ; 10 strings for story part 4a
 000004F2  68 00001CF2 R	    push    OFFSET sAscii4ak
 000004F7  68 00001CD3 R	    push    OFFSET sAscii4aj
 000004FC  68 00001CB4 R	    push    OFFSET sAscii4ai
 00000501  68 00001C95 R	    push    OFFSET sAscii4ah
 00000506  68 00001C76 R	    push    OFFSET sAscii4ag
 0000050B  68 00001C57 R	    push    OFFSET sAscii4af
 00000510  68 00001C38 R	    push    OFFSET sAscii4ae
 00000515  68 00001C19 R	    push    OFFSET sAscii4ad
 0000051A  68 00001BFA R	    push    OFFSET sAscii4ac
 0000051F  68 00001BDB R	    push    OFFSET sAscii4ab
 00000524  68 00001BC1 R	    push    OFFSET sAscii4aa
				    ; 11 lines of ascii for story part 4a

 00000529  68 00001BA1 R	    push    OFFSET sPrompt3db
 0000052E  68 00001B81 R	    push    OFFSET sPrompt3da
				    ; 2 prompts for story part 3d
 00000533  68 00001B5A R	    push    OFFSET sStory3de
 00000538  68 00001B36 R	    push    OFFSET sStory3dd
 0000053D  68 00001B0D R	    push    OFFSET sStory3dc
 00000542  68 00001AAA R	    push    OFFSET sStory3db
 00000547  68 00001A68 R	    push    OFFSET sStory3da
				    ; 5 strings for story part 3d
 0000054C  68 00001A52 R	    push    OFFSET sAscii3dl
 00000551  68 00001A3C R	    push    OFFSET sAscii3dk
 00000556  68 00001A26 R	    push    OFFSET sAscii3dj
 0000055B  68 00001A10 R	    push    OFFSET sAscii3di
 00000560  68 000019FA R	    push    OFFSET sAscii3dh
 00000565  68 000019E4 R	    push    OFFSET sAscii3dg
 0000056A  68 000019CE R	    push    OFFSET sAscii3df
 0000056F  68 000019B8 R	    push    OFFSET sAscii3de
 00000574  68 000019A2 R	    push    OFFSET sAscii3dd
 00000579  68 0000198C R	    push    OFFSET sAscii3dc
 0000057E  68 00001976 R	    push    OFFSET sAscii3db
 00000583  68 00001960 R	    push    OFFSET sAscii3da
				    ; 12 lines of ascii for story part 3d

 00000588  68 00001940 R	    push    OFFSET sPrompt3cb
 0000058D  68 00001920 R	    push    OFFSET sPrompt3ca
				    ; 2 prompts for story part 3c
 00000592  68 000018D0 R	    push    OFFSET sStory3ci
 00000597  68 000018BB R	    push    OFFSET sStory3ch
 0000059C  68 0000189F R	    push    OFFSET sStory3cg
 000005A1  68 00001848 R	    push    OFFSET sStory3cf
 000005A6  68 0000182B R	    push    OFFSET sStory3ce
 000005AB  68 000017D3 R	    push    OFFSET sStory3cd
 000005B0  68 0000176B R	    push    OFFSET sStory3cc
 000005B5  68 0000171C R	    push    OFFSET sStory3cb
 000005BA  68 000016BA R	    push    OFFSET sStory3ca
				    ; 9 strings for story part 3c
 000005BF  68 000016A7 R	    push    OFFSET sAscii3ck
 000005C4  68 00001694 R	    push    OFFSET sAscii3cj
 000005C9  68 00001681 R	    push    OFFSET sAscii3ci
 000005CE  68 0000166E R	    push    OFFSET sAscii3ch
 000005D3  68 0000165B R	    push    OFFSET sAscii3cg
 000005D8  68 00001648 R	    push    OFFSET sAscii3cf
 000005DD  68 00001635 R	    push    OFFSET sAscii3ce
 000005E2  68 00001622 R	    push    OFFSET sAscii3cd
 000005E7  68 0000160F R	    push    OFFSET sAscii3cc
 000005EC  68 000015FF R	    push    OFFSET sAscii3cb
 000005F1  68 000015EE R	    push    OFFSET sAscii3ca
				    ; 11 lines of ascii for story part 3c

 000005F6  68 000015D1 R	    push    OFFSET sPrompt3bb
 000005FB  68 00001594 R	    push    OFFSET sPrompt3ba
				    ; 2 prompts for story part 3b
 00000600  68 0000154A R	    push    OFFSET sStory3bj
 00000605  68 000014CA R	    push    OFFSET sStory3bi
 0000060A  68 00001462 R	    push    OFFSET sStory3bh
 0000060F  68 000013E9 R	    push    OFFSET sStory3bg
 00000614  68 00001386 R	    push    OFFSET sStory3bf
 00000619  68 00001330 R	    push    OFFSET sStory3be
 0000061E  68 000012CA R	    push    OFFSET sStory3bd
 00000623  68 00001289 R	    push    OFFSET sStory3bc
 00000628  68 00001251 R	    push    OFFSET sStory3bb
 0000062D  68 000011F6 R	    push    OFFSET sStory3ba
				    ; 10 strings for story part 3b
 00000632  68 00000F06 R	    push    OFFSET sAscii3ad
 00000637  68 00000EE8 R	    push    OFFSET sAscii3ac
 0000063C  68 00000ECC R	    push    OFFSET sAscii3ab
 00000641  68 00000EB3 R	    push    OFFSET sAscii3aa
				    ; 4 lines of ascii for story part 3b

 00000646  68 000011DF R	    push    OFFSET sPrompt3ab
 0000064B  68 000011C6 R	    push    OFFSET sPrompt3aa
				    ; 2 prompts for story part 3a
 00000650  68 00001182 R	    push    OFFSET sStory3ah
 00000655  68 0000115F R	    push    OFFSET sStory3ag
 0000065A  68 00001124 R	    push    OFFSET sStory3af
 0000065F  68 000010D3 R	    push    OFFSET sStory3ae
 00000664  68 0000107C R	    push    OFFSET sStory3ad
 00000669  68 00001042 R	    push    OFFSET sStory3ac
 0000066E  68 00000FA8 R	    push    OFFSET sStory3ab
 00000673  68 00000F25 R	    push    OFFSET sStory3aa
				    ; 8 strings for story part 3a
 00000678  68 00000F06 R	    push    OFFSET sAscii3ad
 0000067D  68 00000EE8 R	    push    OFFSET sAscii3ac
 00000682  68 00000ECC R	    push    OFFSET sAscii3ab
 00000687  68 00000EB3 R	    push    OFFSET sAscii3aa
				    ; 4 lines of ascii for story part 3a

 0000068C  68 000011DF R	    push    OFFSET sPrompt3ab
 00000691  68 000011C6 R	    push    OFFSET sPrompt3aa
				    ; 2 prompts for story part 2b
 00000696  68 00000E46 R	    push    OFFSET sStory2bk
 0000069B  68 00000DDD R	    push    OFFSET sStory2bj
 000006A0  68 00000D61 R	    push    OFFSET sStory2bi
 000006A5  68 00000D22 R	    push    OFFSET sStory2bh
 000006AA  68 00000C84 R	    push    OFFSET sStory2bg
 000006AF  68 00000C35 R	    push    OFFSET sStory2bf
 000006B4  68 00000BEC R	    push    OFFSET sStory2be
 000006B9  68 00000B70 R	    push    OFFSET sStory2bd
 000006BE  68 00000A98 R	    push    OFFSET sStory2bc
 000006C3  68 00000A54 R	    push    OFFSET sStory2bb
 000006C8  68 00000A21 R	    push    OFFSET sStory2ba
				    ; 11 strings for story part 2b
 000006CD  68 000009DF R	    push    OFFSET sAscii2bf
 000006D2  68 0000099E R	    push    OFFSET sAscii2be
 000006D7  68 0000095E R	    push    OFFSET sAscii2bd
 000006DC  68 0000091F R	    push    OFFSET sAscii2bc
 000006E1  68 000008E0 R	    push    OFFSET sAscii2bb
 000006E6  68 000008C4 R	    push    OFFSET sAscii2ba
				    ; 6 lines of ascii for story part 2b

 000006EB  68 000008A4 R	    push    OFFSET sPrompt2ab
 000006F0  68 0000087F R	    push    OFFSET sPrompt2aa
				    ; 2 prompts for story part 2a
 000006F5  68 000007FF R	    push    OFFSET sStory2ae
 000006FA  68 0000077D R	    push    OFFSET sStory2ad
 000006FF  68 000006F6 R	    push    OFFSET sStory2ac
 00000704  68 0000067C R	    push    OFFSET sStory2ab
 00000709  68 0000060A R	    push    OFFSET sStory2aa
				    ; 5 strings for story part 2a
 0000070E  68 000005D5 R	    push    OFFSET sAscii2ae
 00000713  68 0000059E R	    push    OFFSET sAscii2ad
 00000718  68 00000568 R	    push    OFFSET sAscii2ac
 0000071D  68 00000538 R	    push    OFFSET sAscii2ab
 00000722  68 00000508 R	    push    OFFSET sAscii2aa
				    ; 5 lines of ascii for story part 2a

 00000727  68 0000008C R	    push    OFFSET sDecision
				    ; 1 Decision
 0000072C  68 000004D9 R	    push    OFFSET sPrompt1a
 00000731  68 000004F0 R	    push    OFFSET sPrompt1b
				    ; 2 prompts for story part 1 (origin)
 00000736  68 0000047B R	    push    OFFSET sStory1i
 0000073B  68 00000435 R	    push    OFFSET sStory1h
 00000740  68 000003D9 R	    push    OFFSET sStory1g
 00000745  68 00000383 R	    push    OFFSET sStory1f
 0000074A  68 00000302 R	    push    OFFSET sStory1e
 0000074F  68 0000027A R	    push    OFFSET sStory1d
 00000754  68 0000021D R	    push    OFFSET sStory1c
 00000759  68 000001C1 R	    push    OFFSET sStory1b
 0000075E  68 00000169 R	    push    OFFSET sStory1a
				    ; 9 strings for story part 1 (origin)
 00000763  68 00000141 R	    push    OFFSET sAscii1e
 00000768  68 0000011A R	    push    OFFSET sAscii1d
 0000076D  68 000000F3 R	    push    OFFSET sAscii1c
 00000772  68 000000CD R	    push    OFFSET sAscii1b
 00000777  68 000000A7 R	    push    OFFSET sAscii1a
				    ; 5 lines of ascii for story part 1 (origin)
 0000077C  E8 0000005E		    call    StoryOrigin ; This will have almost everything pushed to it. 

 00000781  68 00004467 R	    push    OFFSET sName
 00000786  68 00000082 R	    push    OFFSET sGoodbye
 0000078B  E8 00001B74		    call    Goodbye

				    exit
 00000790  6A 00	   *	    push   +000000000h
 00000792  E8 00000000 E   *	    call   ExitProcess

 00000797			main ENDP

 00000797			Introduction PROC
 00000797  55			    push    EBP
 00000798  8B EC		    mov     EBP,            ESP

 0000079A  8B 55 08		    mov     EDX,            [EBP+8]
 0000079D  E8 00000000 E	    call    WriteString
 000007A2  E8 00000000 E	    call    Crlf

 000007A7  8B 55 0C		    mov     EDX,            [EBP+12]
 000007AA  E8 00000000 E	    call    WriteString
 000007AF  E8 00000000 E	    call    Crlf

 000007B4  8B 55 10		    mov     EDX,            [EBP+16]
 000007B7  E8 00000000 E	    call    WriteString
 000007BC  E8 00000000 E	    call    Crlf

 000007C1  8B 55 14		    mov     EDX,            [EBP+20]
 000007C4  E8 00000000 E	    call    WriteString
				    
 000007C9  8B 55 18		    mov     EDX,            [EBP+24]
 000007CC  B9 00000014		    mov     ECX,            20
 000007D1  E8 00000000 E	    call    ReadString
 000007D6  A3 0000447F R	    mov     dNameL,         EAX

 000007DB  5D			    pop     EBP

 000007DC  C2 0014		    ret     20
 000007DF			Introduction ENDP


 000007DF			StoryOrigin PROC
 000007DF  55			    push    EBP
 000007E0  8B EC		    mov     EBP,            ESP

 000007E2			    Input:
				        ; 5 ascii
 000007E2  8B 55 08		        mov     EDX,            [EBP+8]
 000007E5  E8 00000000 E	        call    WriteString
 000007EA  E8 00000000 E	        call    Crlf
 000007EF  8B 55 0C		        mov     EDX,            [EBP+12]
 000007F2  E8 00000000 E	        call    WriteString
 000007F7  E8 00000000 E	        call    Crlf
 000007FC  8B 55 10		        mov     EDX,            [EBP+16]
 000007FF  E8 00000000 E	        call    WriteString
 00000804  E8 00000000 E	        call    Crlf
 00000809  8B 55 14		        mov     EDX,            [EBP+20]
 0000080C  E8 00000000 E	        call    WriteString
 00000811  E8 00000000 E	        call    Crlf
 00000816  8B 55 18		        mov     EDX,            [EBP+24]
 00000819  E8 00000000 E	        call    WriteString
 0000081E  E8 00000000 E	        call    Crlf
				        ; 9 storylines
 00000823  8B 55 1C		        mov     EDX,            [EBP+28]
 00000826  E8 00000000 E	        call    WriteString
 0000082B  E8 00000000 E	        call    Crlf
 00000830  8B 55 20		        mov     EDX,            [EBP+32]
 00000833  E8 00000000 E	        call    WriteString
 00000838  E8 00000000 E	        call    Crlf
 0000083D  8B 55 24		        mov     EDX,            [EBP+36]
 00000840  E8 00000000 E	        call    WriteString
 00000845  E8 00000000 E	        call    Crlf
 0000084A  8B 55 28		        mov     EDX,            [EBP+40]
 0000084D  E8 00000000 E	        call    WriteString
 00000852  E8 00000000 E	        call    Crlf
 00000857  8B 55 2C		        mov     EDX,            [EBP+44]
 0000085A  E8 00000000 E	        call    WriteString
 0000085F  E8 00000000 E	        call    Crlf
 00000864  8B 55 30		        mov     EDX,            [EBP+48]
 00000867  E8 00000000 E	        call    WriteString
 0000086C  E8 00000000 E	        call    Crlf
 00000871  8B 55 34		        mov     EDX,            [EBP+52]
 00000874  E8 00000000 E	        call    WriteString
 00000879  E8 00000000 E	        call    Crlf
 0000087E  8B 55 38		        mov     EDX,            [EBP+56]
 00000881  E8 00000000 E	        call    WriteString
 00000886  E8 00000000 E	        call    Crlf
 0000088B  8B 55 3C		        mov     EDX,            [EBP+60]
 0000088E  E8 00000000 E	        call    WriteString
 00000893  E8 00000000 E	        call    Crlf
				        ; 2 prompts/options
 00000898  8B 55 40		        mov     EDX,            [EBP+64]
 0000089B  E8 00000000 E	        call    WriteString
 000008A0  E8 00000000 E	        call    Crlf
 000008A5  8B 55 44		        mov     EDX,            [EBP+68]
 000008A8  E8 00000000 E	        call    WriteString
 000008AD  E8 00000000 E	        call    Crlf

				        ; 1 Decision
 000008B2  8B 55 48		        mov     EDX,            [EBP+72]
 000008B5  E8 00000000 E	        call    WriteString
 000008BA  E8 00000000 E	        call    Crlf

 000008BF  E8 00000000 E	        call    ReadInt

 000008C4  83 F8 01		        cmp     EAX,            1
 000008C7  74 1F		        je      L2a
 000008C9  83 F8 02		        cmp     EAX,            2
 000008CC  74 22		        je      L2b
 000008CE  EB 03		        jmp     IncorrectInput

 000008D0			    LeaveGame:
 000008D0  C2 05E4		        ret     1508 ; This will return a LOT, but will only get triggered
				                ;       after rest of functions are returning.
				                ; Ples don't give me sheyt

 000008D3			    IncorrectInput:
 000008D3  8B 95 000005E8	        mov     EDX,                 [EBP+1512]
 000008D9  E8 00000000 E	        call    WriteString
 000008DE  E8 00000000 E	        call    Crlf
 000008E3  E9 FFFFFEFA		        jmp     Input
 000008E8			    L2a:
 000008E8  5D			        pop     EBP
 000008E9  E8 0000000A		        call    Story2a
 000008EE  EB E0		        jmp     LeaveGame
 000008F0			    L2b:
 000008F0  5D			        pop     EBP
 000008F1  E8 000000E7		        call    Story2b
 000008F6  EB D8		        jmp     LeaveGame
 000008F8			StoryOrigin ENDP


 000008F8			Story2a PROC
 000008F8  55			    push    EBP
 000008F9  8B EC		    mov     EBP,            ESP


 000008FB  E8 00000000 E	    call    ClrScr
				    ; 5 ascii
 00000900  8B 55 4C		    mov     EDX,            [EBP+76]
 00000903  E8 00000000 E	    call    WriteString
 00000908  E8 00000000 E	    call    Crlf
 0000090D  8B 55 50		    mov     EDX,            [EBP+80]
 00000910  E8 00000000 E	    call    WriteString
 00000915  E8 00000000 E	    call    Crlf
 0000091A  8B 55 54		    mov     EDX,            [EBP+84]
 0000091D  E8 00000000 E	    call    WriteString
 00000922  E8 00000000 E	    call    Crlf
 00000927  8B 55 58		    mov     EDX,            [EBP+88]
 0000092A  E8 00000000 E	    call    WriteString
 0000092F  E8 00000000 E	    call    Crlf
 00000934  8B 55 5C		    mov     EDX,            [EBP+92]
 00000937  E8 00000000 E	    call    WriteString
 0000093C  E8 00000000 E	    call    Crlf
				    ;5 storylines
 00000941  8B 55 60		    mov     EDX,            [EBP+96]
 00000944  E8 00000000 E	    call    WriteString
 00000949  E8 00000000 E	    call    Crlf
 0000094E  8B 55 64		    mov     EDX,            [EBP+100]
 00000951  E8 00000000 E	    call    WriteString
 00000956  E8 00000000 E	    call    Crlf
 0000095B  8B 55 68		    mov     EDX,            [EBP+104]
 0000095E  E8 00000000 E	    call    WriteString
 00000963  E8 00000000 E	    call    Crlf
 00000968  8B 55 6C		    mov     EDX,            [EBP+108]
 0000096B  E8 00000000 E	    call    WriteString
 00000970  E8 00000000 E	    call    Crlf
 00000975  8B 55 70		    mov     EDX,            [EBP+112]
 00000978  E8 00000000 E	    call    WriteString
 0000097D  E8 00000000 E	    call    Crlf
				    ;2 prompts
 00000982  8B 55 74		    mov     EDX,            [EBP+116]
 00000985  E8 00000000 E	    call    WriteString
 0000098A  E8 00000000 E	    call    Crlf
 0000098F  8B 55 78		    mov     EDX,            [EBP+120]
 00000992  E8 00000000 E	    call    WriteString
 00000997  E8 00000000 E	    call    Crlf

 0000099C			    Input:
 0000099C  8B 55 48		        mov     EDX,            [EBP+72]
 0000099F  E8 00000000 E	        call    WriteString
 000009A4  E8 00000000 E	        call    Crlf
 000009A9  E8 00000000 E	        call    ReadInt

 000009AE  83 F8 01		        cmp     EAX,            1
 000009B1  74 1A		        je      L3a
 000009B3  83 F8 02		        cmp     EAX,            2
 000009B6  74 1D		        je      L3b
 000009B8  EB 01		        jmp     IncorrectInput

 000009BA			    LeaveFunc:
 000009BA  C3			        ret

 000009BB			    IncorrectInput:
 000009BB  8B 95 000005E8	        mov     EDX,                 [EBP+1512]
 000009C1  E8 00000000 E	        call    WriteString
 000009C6  E8 00000000 E	        call    Crlf
 000009CB  EB CF		        jmp     Input
 000009CD			    L3a:
 000009CD  5D			        pop     EBP
 000009CE  E8 0000017B		        call    Story3a
 000009D3  EB E5		        jmp     LeaveFunc
 000009D5			    L3b:
 000009D5  5D			        pop     EBP
 000009D6  E8 00000297		        call    Story3b
 000009DB  EB DD		        jmp     LeaveFunc
 000009DD			Story2a ENDP


 000009DD			Story2b PROC
 000009DD  55			    push    EBP
 000009DE  8B EC		    mov     EBP,            ESP

 000009E0  E8 00000000 E	    call    ClrScr
				    ; 6 ascii
 000009E5  8B 55 7C		    mov     EDX,            [EBP+124]
 000009E8  E8 00000000 E	    call    WriteString
 000009ED  E8 00000000 E	    call    Crlf
 000009F2  8B 95 00000080	    mov     EDX,            [EBP+128]
 000009F8  E8 00000000 E	    call    WriteString
 000009FD  E8 00000000 E	    call    Crlf
 00000A02  8B 95 00000084	    mov     EDX,            [EBP+132]
 00000A08  E8 00000000 E	    call    WriteString
 00000A0D  E8 00000000 E	    call    Crlf
 00000A12  8B 95 00000088	    mov     EDX,            [EBP+136]
 00000A18  E8 00000000 E	    call    WriteString
 00000A1D  E8 00000000 E	    call    Crlf
 00000A22  8B 95 0000008C	    mov     EDX,            [EBP+140]
 00000A28  E8 00000000 E	    call    WriteString
 00000A2D  E8 00000000 E	    call    Crlf
 00000A32  8B 95 00000090	    mov     EDX,            [EBP+144]
 00000A38  E8 00000000 E	    call    WriteString
 00000A3D  E8 00000000 E	    call    Crlf
				    ; 11 storylines
 00000A42  8B 95 00000094	    mov     EDX,            [EBP+148]
 00000A48  E8 00000000 E	    call    WriteString
 00000A4D  E8 00000000 E	    call    Crlf
 00000A52  8B 95 00000098	    mov     EDX,            [EBP+152]
 00000A58  E8 00000000 E	    call    WriteString
 00000A5D  E8 00000000 E	    call    Crlf
 00000A62  8B 95 0000009C	    mov     EDX,            [EBP+156]
 00000A68  E8 00000000 E	    call    WriteString
 00000A6D  E8 00000000 E	    call    Crlf
 00000A72  8B 95 000000A0	    mov     EDX,            [EBP+160]
 00000A78  E8 00000000 E	    call    WriteString
 00000A7D  E8 00000000 E	    call    Crlf
 00000A82  8B 95 000000A4	    mov     EDX,            [EBP+164]
 00000A88  E8 00000000 E	    call    WriteString
 00000A8D  E8 00000000 E	    call    Crlf
 00000A92  8B 95 000000A8	    mov     EDX,            [EBP+168]
 00000A98  E8 00000000 E	    call    WriteString
 00000A9D  E8 00000000 E	    call    Crlf
 00000AA2  8B 95 000000AC	    mov     EDX,            [EBP+172]
 00000AA8  E8 00000000 E	    call    WriteString
 00000AAD  E8 00000000 E	    call    Crlf
 00000AB2  8B 95 000000B0	    mov     EDX,            [EBP+176]
 00000AB8  E8 00000000 E	    call    WriteString
 00000ABD  E8 00000000 E	    call    Crlf
 00000AC2  8B 95 000000B4	    mov     EDX,            [EBP+180]
 00000AC8  E8 00000000 E	    call    WriteString
 00000ACD  E8 00000000 E	    call    Crlf
 00000AD2  8B 95 000000B8	    mov     EDX,            [EBP+184]
 00000AD8  E8 00000000 E	    call    WriteString
 00000ADD  E8 00000000 E	    call    Crlf
 00000AE2  8B 95 000000BC	    mov     EDX,            [EBP+188]
 00000AE8  E8 00000000 E	    call    WriteString
 00000AED  E8 00000000 E	    call    Crlf
				    ; 2 prompts
 00000AF2  8B 95 000000C0	    mov     EDX,            [EBP+192]
 00000AF8  E8 00000000 E	    call    WriteString
 00000AFD  E8 00000000 E	    call    Crlf
 00000B02  8B 95 000000C4	    mov     EDX,            [EBP+196]
 00000B08  E8 00000000 E	    call    WriteString
 00000B0D  E8 00000000 E	    call    Crlf

 00000B12			    Input:
 00000B12  8B 55 48		        mov     EDX,            [EBP+72]
 00000B15  E8 00000000 E	        call    WriteString
 00000B1A  E8 00000000 E	        call    ReadInt

 00000B1F  83 F8 01		        cmp     EAX,            1
 00000B22  74 1A		        je      L3c
 00000B24  83 F8 02		        cmp     EAX,            2
 00000B27  74 1D		        je      L3d
 00000B29  EB 01		        jmp     IncorrectInput

 00000B2B			    LeaveFunc:
 00000B2B  C3			        ret

 00000B2C			    IncorrectInput:
 00000B2C  8B 95 000005E8	        mov     EDX,                 [EBP+1512]
 00000B32  E8 00000000 E	        call    WriteString
 00000B37  E8 00000000 E	        call    Crlf
 00000B3C  EB D4		        jmp     Input
 00000B3E			    L3c:
 00000B3E  5D			        pop     EBP
 00000B3F  E8 00000272		        call    Story3c
 00000B44  EB E5		        jmp     LeaveFunc
 00000B46			    L3d:
 00000B46  5D			        pop     EBP
 00000B47  E8 0000040E		        call    Story3d
 00000B4C  EB DD		        jmp     LeaveFunc
 00000B4E			Story2b ENDP


 00000B4E			Story3a PROC
 00000B4E  55			    push    EBP
 00000B4F  8B EC		    mov     EBP,            ESP

 00000B51  E8 00000000 E	    call    ClrScr
				    ; 4 ascii
 00000B56  8B 95 000000C8	    mov     EDX,            [EBP+200]
 00000B5C  E8 00000000 E	    call    WriteString
 00000B61  E8 00000000 E	    call    Crlf
 00000B66  8B 95 000000CC	    mov     EDX,            [EBP+204]
 00000B6C  E8 00000000 E	    call    WriteString
 00000B71  E8 00000000 E	    call    Crlf
 00000B76  8B 95 000000D0	    mov     EDX,            [EBP+208]
 00000B7C  E8 00000000 E	    call    WriteString
 00000B81  E8 00000000 E	    call    Crlf
 00000B86  8B 95 000000D4	    mov     EDX,            [EBP+212]
 00000B8C  E8 00000000 E	    call    WriteString
 00000B91  E8 00000000 E	    call    Crlf
				    ; 8 storylines
 00000B96  8B 95 000000D8	    mov     EDX,            [EBP+216]
 00000B9C  E8 00000000 E	    call    WriteString
 00000BA1  E8 00000000 E	    call    Crlf
 00000BA6  8B 95 000000DC	    mov     EDX,            [EBP+220]
 00000BAC  E8 00000000 E	    call    WriteString
 00000BB1  E8 00000000 E	    call    Crlf
 00000BB6  8B 95 000000E0	    mov     EDX,            [EBP+224]
 00000BBC  E8 00000000 E	    call    WriteString
 00000BC1  E8 00000000 E	    call    Crlf
 00000BC6  8B 95 000000E4	    mov     EDX,            [EBP+228]
 00000BCC  E8 00000000 E	    call    WriteString
 00000BD1  E8 00000000 E	    call    Crlf
 00000BD6  8B 95 000000E8	    mov     EDX,            [EBP+232]
 00000BDC  E8 00000000 E	    call    WriteString
 00000BE1  E8 00000000 E	    call    Crlf
 00000BE6  8B 95 000000EC	    mov     EDX,            [EBP+236]
 00000BEC  E8 00000000 E	    call    WriteString
 00000BF1  E8 00000000 E	    call    Crlf
 00000BF6  8B 95 000000F0	    mov     EDX,            [EBP+240]
 00000BFC  E8 00000000 E	    call    WriteString
 00000C01  E8 00000000 E	    call    Crlf
 00000C06  8B 95 000000F4	    mov     EDX,            [EBP+244]
 00000C0C  E8 00000000 E	    call    WriteString
 00000C11  E8 00000000 E	    call    Crlf
				    ; 2 prompts
 00000C16  8B 95 000000F8	    mov     EDX,            [EBP+248]
 00000C1C  E8 00000000 E	    call    WriteString
 00000C21  E8 00000000 E	    call    Crlf
 00000C26  8B 95 000000FC	    mov     EDX,            [EBP+252]
 00000C2C  E8 00000000 E	    call    WriteString
 00000C31  E8 00000000 E	    call    Crlf

 00000C36			    Input:
 00000C36  8B 55 48		        mov     EDX,            [EBP+72]
 00000C39  E8 00000000 E	        call    WriteString
 00000C3E  E8 00000000 E	        call    ReadInt

 00000C43  83 F8 01		        cmp     EAX,            1
 00000C46  74 1A		        je      L4c
 00000C48  83 F8 02		        cmp     EAX,            2
 00000C4B  74 1D		        je      L4a
 00000C4D  EB 01		        jmp     IncorrectInput

 00000C4F			    LeaveFunc:
 00000C4F  C3			        ret

 00000C50			    IncorrectInput:
 00000C50  8B 95 000005E8	        mov     EDX,                 [EBP+1512]
 00000C56  E8 00000000 E	        call    WriteString
 00000C5B  E8 00000000 E	        call    Crlf
 00000C60  EB D4		        jmp     Input
 00000C62			    L4c:
 00000C62  5D			        pop     EBP
 00000C63  E8 0000072E		        call    Story4c
 00000C68  EB E5		        jmp     LeaveFunc
 00000C6A			    L4a:
 00000C6A  5D			        pop     EBP
 00000C6B  E8 0000045E		        call    Story4a
 00000C70  EB DD		        jmp     LeaveFunc
 00000C72			Story3a ENDP


 00000C72			Story3b PROC
 00000C72  55			    push    EBP
 00000C73  8B EC		    mov     EBP,            ESP

 00000C75  E8 00000000 E	    call    ClrScr
				    ; 4 ascii
 00000C7A  8B 95 00000100	    mov     EDX,            [EBP+256]
 00000C80  E8 00000000 E	    call    WriteString
 00000C85  E8 00000000 E	    call    Crlf
 00000C8A  8B 95 00000104	    mov     EDX,            [EBP+260]
 00000C90  E8 00000000 E	    call    WriteString
 00000C95  E8 00000000 E	    call    Crlf
 00000C9A  8B 95 00000108	    mov     EDX,            [EBP+264]
 00000CA0  E8 00000000 E	    call    WriteString
 00000CA5  E8 00000000 E	    call    Crlf
 00000CAA  8B 95 0000010C	    mov     EDX,            [EBP+268]
 00000CB0  E8 00000000 E	    call    WriteString
 00000CB5  E8 00000000 E	    call    Crlf
				    ; 10 storylines
 00000CBA  8B 95 00000110	    mov     EDX,            [EBP+272]
 00000CC0  E8 00000000 E	    call    WriteString
 00000CC5  E8 00000000 E	    call    Crlf
 00000CCA  8B 95 00000114	    mov     EDX,            [EBP+276]
 00000CD0  E8 00000000 E	    call    WriteString
 00000CD5  E8 00000000 E	    call    Crlf
 00000CDA  8B 95 00000118	    mov     EDX,            [EBP+280]
 00000CE0  E8 00000000 E	    call    WriteString
 00000CE5  E8 00000000 E	    call    Crlf
 00000CEA  8B 95 0000011C	    mov     EDX,            [EBP+284]
 00000CF0  E8 00000000 E	    call    WriteString
 00000CF5  E8 00000000 E	    call    Crlf
 00000CFA  8B 95 00000120	    mov     EDX,            [EBP+288]
 00000D00  E8 00000000 E	    call    WriteString
 00000D05  E8 00000000 E	    call    Crlf
 00000D0A  8B 95 00000124	    mov     EDX,            [EBP+292]
 00000D10  E8 00000000 E	    call    WriteString
 00000D15  E8 00000000 E	    call    Crlf
 00000D1A  8B 95 00000128	    mov     EDX,            [EBP+296]
 00000D20  E8 00000000 E	    call    WriteString
 00000D25  E8 00000000 E	    call    Crlf
 00000D2A  8B 95 0000012C	    mov     EDX,            [EBP+300]
 00000D30  E8 00000000 E	    call    WriteString
 00000D35  E8 00000000 E	    call    Crlf
 00000D3A  8B 95 00000130	    mov     EDX,            [EBP+304]
 00000D40  E8 00000000 E	    call    WriteString
 00000D45  E8 00000000 E	    call    Crlf
 00000D4A  8B 95 00000134	    mov     EDX,            [EBP+308]
 00000D50  E8 00000000 E	    call    WriteString
 00000D55  E8 00000000 E	    call    Crlf
				    ; 2 prompts
 00000D5A  8B 95 00000138	    mov     EDX,            [EBP+312]
 00000D60  E8 00000000 E	    call    WriteString
 00000D65  E8 00000000 E	    call    Crlf
 00000D6A  8B 95 0000013C	    mov     EDX,            [EBP+316]
 00000D70  E8 00000000 E	    call    WriteString
 00000D75  E8 00000000 E	    call    Crlf

 00000D7A			    Input:
 00000D7A  8B 55 48		        mov     EDX,            [EBP+72]
 00000D7D  E8 00000000 E	        call    WriteString
 00000D82  E8 00000000 E	        call    ReadInt

 00000D87  83 F8 01		        cmp     EAX,            1
 00000D8A  74 1A		        je      L4b
 00000D8C  83 F8 02		        cmp     EAX,            2
 00000D8F  74 1D		        je      L4c
 00000D91  EB 01		        jmp     IncorrectInput

 00000D93			    LeaveFunc:
 00000D93  C3			        ret

 00000D94			    IncorrectInput:
 00000D94  8B 95 000005E8	        mov     EDX,                 [EBP+1512]
 00000D9A  E8 00000000 E	        call    WriteString
 00000D9F  E8 00000000 E	        call    Crlf
 00000DA4  EB D4		        jmp     Input
 00000DA6			    L4b:
 00000DA6  5D			        pop     EBP
 00000DA7  E8 000004D6		        call    Story4b
 00000DAC  EB E5		        jmp     LeaveFunc
 00000DAE			    L4c:
 00000DAE  5D			        pop     EBP
 00000DAF  E8 000005E2		        call    Story4c
 00000DB4  EB DD		        jmp     LeaveFunc
 00000DB6			Story3b ENDP


 00000DB6			Story3c PROC
 00000DB6  55			    push    EBP
 00000DB7  8B EC		    mov     EBP,            ESP

 00000DB9  E8 00000000 E	    call    ClrScr
				    ; 11 ascii
 00000DBE  8B 95 00000140	    mov     EDX,            [EBP+320]
 00000DC4  E8 00000000 E	    call    WriteString
 00000DC9  E8 00000000 E	    call    Crlf
 00000DCE  8B 95 00000144	    mov     EDX,            [EBP+324]
 00000DD4  E8 00000000 E	    call    WriteString
 00000DD9  E8 00000000 E	    call    Crlf
 00000DDE  8B 95 00000148	    mov     EDX,            [EBP+328]
 00000DE4  E8 00000000 E	    call    WriteString
 00000DE9  E8 00000000 E	    call    Crlf
 00000DEE  8B 95 0000014C	    mov     EDX,            [EBP+332]
 00000DF4  E8 00000000 E	    call    WriteString
 00000DF9  E8 00000000 E	    call    Crlf
 00000DFE  8B 95 00000150	    mov     EDX,            [EBP+336]
 00000E04  E8 00000000 E	    call    WriteString
 00000E09  E8 00000000 E	    call    Crlf
 00000E0E  8B 95 00000154	    mov     EDX,            [EBP+340]
 00000E14  E8 00000000 E	    call    WriteString
 00000E19  E8 00000000 E	    call    Crlf
 00000E1E  8B 95 00000158	    mov     EDX,            [EBP+344]
 00000E24  E8 00000000 E	    call    WriteString
 00000E29  E8 00000000 E	    call    Crlf
 00000E2E  8B 95 0000015C	    mov     EDX,            [EBP+348]
 00000E34  E8 00000000 E	    call    WriteString
 00000E39  E8 00000000 E	    call    Crlf
 00000E3E  8B 95 00000160	    mov     EDX,            [EBP+352]
 00000E44  E8 00000000 E	    call    WriteString
 00000E49  E8 00000000 E	    call    Crlf
 00000E4E  8B 95 00000164	    mov     EDX,            [EBP+356]
 00000E54  E8 00000000 E	    call    WriteString
 00000E59  E8 00000000 E	    call    Crlf
 00000E5E  8B 95 00000168	    mov     EDX,            [EBP+360]
 00000E64  E8 00000000 E	    call    WriteString
 00000E69  E8 00000000 E	    call    Crlf
				    ; 9 storylines
 00000E6E  8B 95 0000016C	    mov     EDX,            [EBP+364]
 00000E74  E8 00000000 E	    call    WriteString
 00000E79  E8 00000000 E	    call    Crlf
 00000E7E  8B 95 00000170	    mov     EDX,            [EBP+368]
 00000E84  E8 00000000 E	    call    WriteString
 00000E89  E8 00000000 E	    call    Crlf
 00000E8E  8B 95 00000174	    mov     EDX,            [EBP+372]
 00000E94  E8 00000000 E	    call    WriteString
 00000E99  E8 00000000 E	    call    Crlf
 00000E9E  8B 95 00000178	    mov     EDX,            [EBP+376]
 00000EA4  E8 00000000 E	    call    WriteString
 00000EA9  E8 00000000 E	    call    Crlf
 00000EAE  8B 95 0000017C	    mov     EDX,            [EBP+380]
 00000EB4  E8 00000000 E	    call    WriteString
 00000EB9  E8 00000000 E	    call    Crlf
 00000EBE  8B 95 00000180	    mov     EDX,            [EBP+384]
 00000EC4  E8 00000000 E	    call    WriteString
 00000EC9  E8 00000000 E	    call    Crlf
 00000ECE  8B 95 00000184	    mov     EDX,            [EBP+388]
 00000ED4  E8 00000000 E	    call    WriteString
 00000ED9  E8 00000000 E	    call    Crlf
 00000EDE  8B 95 00000188	    mov     EDX,            [EBP+392]
 00000EE4  E8 00000000 E	    call    WriteString
 00000EE9  E8 00000000 E	    call    Crlf
 00000EEE  8B 95 0000018C	    mov     EDX,            [EBP+396]
 00000EF4  E8 00000000 E	    call    WriteString
 00000EF9  E8 00000000 E	    call    Crlf
				    ; 2 prompts
 00000EFE  8B 95 00000190	    mov     EDX,            [EBP+400]
 00000F04  E8 00000000 E	    call    WriteString
 00000F09  E8 00000000 E	    call    Crlf
 00000F0E  8B 95 00000194	    mov     EDX,            [EBP+404]
 00000F14  E8 00000000 E	    call    WriteString
 00000F19  E8 00000000 E	    call    Crlf

 00000F1E			    Input:
 00000F1E  8B 55 48		        mov     EDX,            [EBP+72]
 00000F21  E8 00000000 E	        call    WriteString
 00000F26  E8 00000000 E	        call    ReadInt

 00000F2B  83 F8 01		        cmp     EAX,            1
 00000F2E  74 1A		        je      L4d
 00000F30  83 F8 02		        cmp     EAX,            2
 00000F33  74 1D		        je      L4e
 00000F35  EB 01		        jmp     IncorrectInput

 00000F37			    LeaveFunc:
 00000F37  C3			        ret

 00000F38			    IncorrectInput:
 00000F38  8B 95 000005E8	        mov     EDX,                 [EBP+1512]
 00000F3E  E8 00000000 E	        call    WriteString
 00000F43  E8 00000000 E	        call    Crlf
 00000F48  EB D4		        jmp     Input
 00000F4A			    L4d:
 00000F4A  5D			        pop     EBP
 00000F4B  E8 000005DA		        call    Story4d
 00000F50  EB E5		        jmp     LeaveFunc
 00000F52			    L4e:
 00000F52  5D			        pop     EBP
 00000F53  E8 00000766		        call    Story4e
 00000F58  EB DD		        jmp     LeaveFunc
 00000F5A			Story3c ENDP

 00000F5A			Story3d PROC
 00000F5A  55			    push    EBP
 00000F5B  8B EC		    mov     EBP,            ESP

 00000F5D  E8 00000000 E	    call    ClrScr
				    ; 12 ascii
 00000F62  8B 95 00000198	    mov     EDX,            [EBP+408]
 00000F68  E8 00000000 E	    call    WriteString
 00000F6D  E8 00000000 E	    call    Crlf
 00000F72  8B 95 0000019C	    mov     EDX,            [EBP+412]
 00000F78  E8 00000000 E	    call    WriteString
 00000F7D  E8 00000000 E	    call    Crlf
 00000F82  8B 95 000001A0	    mov     EDX,            [EBP+416]
 00000F88  E8 00000000 E	    call    WriteString
 00000F8D  E8 00000000 E	    call    Crlf
 00000F92  8B 95 000001A4	    mov     EDX,            [EBP+420]
 00000F98  E8 00000000 E	    call    WriteString
 00000F9D  E8 00000000 E	    call    Crlf
 00000FA2  8B 95 000001A8	    mov     EDX,            [EBP+424]
 00000FA8  E8 00000000 E	    call    WriteString
 00000FAD  E8 00000000 E	    call    Crlf
 00000FB2  8B 95 000001AC	    mov     EDX,            [EBP+428]
 00000FB8  E8 00000000 E	    call    WriteString
 00000FBD  E8 00000000 E	    call    Crlf
 00000FC2  8B 95 000001B0	    mov     EDX,            [EBP+432]
 00000FC8  E8 00000000 E	    call    WriteString
 00000FCD  E8 00000000 E	    call    Crlf
 00000FD2  8B 95 000001B4	    mov     EDX,            [EBP+436]
 00000FD8  E8 00000000 E	    call    WriteString
 00000FDD  E8 00000000 E	    call    Crlf
 00000FE2  8B 95 000001B8	    mov     EDX,            [EBP+440]
 00000FE8  E8 00000000 E	    call    WriteString
 00000FED  E8 00000000 E	    call    Crlf
 00000FF2  8B 95 000001BC	    mov     EDX,            [EBP+444]
 00000FF8  E8 00000000 E	    call    WriteString
 00000FFD  E8 00000000 E	    call    Crlf
 00001002  8B 95 000001C0	    mov     EDX,            [EBP+448]
 00001008  E8 00000000 E	    call    WriteString
 0000100D  E8 00000000 E	    call    Crlf
 00001012  8B 95 000001C4	    mov     EDX,            [EBP+452]
 00001018  E8 00000000 E	    call    WriteString
 0000101D  E8 00000000 E	    call    Crlf
				    ; 5 storylines
 00001022  8B 95 000001C8	    mov     EDX,            [EBP+456]
 00001028  E8 00000000 E	    call    WriteString
 0000102D  E8 00000000 E	    call    Crlf
 00001032  8B 95 000001CC	    mov     EDX,            [EBP+460]
 00001038  E8 00000000 E	    call    WriteString
 0000103D  E8 00000000 E	    call    Crlf
 00001042  8B 95 000001D0	    mov     EDX,            [EBP+464]
 00001048  E8 00000000 E	    call    WriteString
 0000104D  E8 00000000 E	    call    Crlf
 00001052  8B 95 000001D4	    mov     EDX,            [EBP+468]
 00001058  E8 00000000 E	    call    WriteString
 0000105D  E8 00000000 E	    call    Crlf
 00001062  8B 95 000001D8	    mov     EDX,            [EBP+472]
 00001068  E8 00000000 E	    call    WriteString
 0000106D  E8 00000000 E	    call    Crlf
				    ; 2 prompts
 00001072  8B 95 000001DC	    mov     EDX,            [EBP+476]
 00001078  E8 00000000 E	    call    WriteString
 0000107D  E8 00000000 E	    call    Crlf
 00001082  8B 95 000001E0	    mov     EDX,            [EBP+480]
 00001088  E8 00000000 E	    call    WriteString
 0000108D  E8 00000000 E	    call    Crlf

 00001092			    Input:
 00001092  8B 55 48		        mov     EDX,            [EBP+72]
 00001095  E8 00000000 E	        call    WriteString
 0000109A  E8 00000000 E	        call    ReadInt

 0000109F  83 F8 01		        cmp     EAX,            1
 000010A2  74 1A		        je      L4d
 000010A4  83 F8 02		        cmp     EAX,            2
 000010A7  74 1D		        je      L4e
 000010A9  EB 01		        jmp     IncorrectInput

 000010AB			    LeaveFunc:
 000010AB  C3			        ret

 000010AC			    IncorrectInput:
 000010AC  8B 95 000005E4	        mov     EDX,                 [EBP+1508]
 000010B2  E8 00000000 E	        call    WriteString
 000010B7  E8 00000000 E	        call    Crlf
 000010BC  EB D4		        jmp     Input
 000010BE			    L4d:
 000010BE  5D			        pop     EBP
 000010BF  E8 00000466		        call    Story4d
 000010C4  EB E5		        jmp     LeaveFunc
 000010C6			    L4e:
 000010C6  5D			        pop     EBP
 000010C7  E8 000005F2		        call    Story4e
 000010CC  EB DD		        jmp     LeaveFunc
 000010CE			Story3d ENDP


 000010CE			Story4a PROC
 000010CE  55			    push    EBP
 000010CF  8B EC		    mov     EBP,            ESP

 000010D1  E8 00000000 E	    call    ClrScr
				    ; 11 ascii
 000010D6  8B 95 000001E4	    mov     EDX,            [EBP+484]
 000010DC  E8 00000000 E	    call    WriteString
 000010E1  E8 00000000 E	    call    Crlf
 000010E6  8B 95 000001E8	    mov     EDX,            [EBP+488]
 000010EC  E8 00000000 E	    call    WriteString
 000010F1  E8 00000000 E	    call    Crlf
 000010F6  8B 95 000001EC	    mov     EDX,            [EBP+492]
 000010FC  E8 00000000 E	    call    WriteString
 00001101  E8 00000000 E	    call    Crlf
 00001106  8B 95 000001F0	    mov     EDX,            [EBP+496]
 0000110C  E8 00000000 E	    call    WriteString
 00001111  E8 00000000 E	    call    Crlf
 00001116  8B 95 000001F4	    mov     EDX,            [EBP+500]
 0000111C  E8 00000000 E	    call    WriteString
 00001121  E8 00000000 E	    call    Crlf
 00001126  8B 95 000001F8	    mov     EDX,            [EBP+504]
 0000112C  E8 00000000 E	    call    WriteString
 00001131  E8 00000000 E	    call    Crlf
 00001136  8B 95 000001FC	    mov     EDX,            [EBP+508]
 0000113C  E8 00000000 E	    call    WriteString
 00001141  E8 00000000 E	    call    Crlf
 00001146  8B 95 00000200	    mov     EDX,            [EBP+512]
 0000114C  E8 00000000 E	    call    WriteString
 00001151  E8 00000000 E	    call    Crlf
 00001156  8B 95 00000204	    mov     EDX,            [EBP+516]
 0000115C  E8 00000000 E	    call    WriteString
 00001161  E8 00000000 E	    call    Crlf
 00001166  8B 95 00000208	    mov     EDX,            [EBP+520]
 0000116C  E8 00000000 E	    call    WriteString
 00001171  E8 00000000 E	    call    Crlf
 00001176  8B 95 0000020C	    mov     EDX,            [EBP+524]
 0000117C  E8 00000000 E	    call    WriteString
 00001181  E8 00000000 E	    call    Crlf
				    ; 10 storylines
 00001186  8B 95 00000210	    mov     EDX,            [EBP+528]
 0000118C  E8 00000000 E	    call    WriteString
 00001191  E8 00000000 E	    call    Crlf
 00001196  8B 95 00000214	    mov     EDX,            [EBP+532]
 0000119C  E8 00000000 E	    call    WriteString
 000011A1  E8 00000000 E	    call    Crlf
 000011A6  8B 95 00000218	    mov     EDX,            [EBP+536]
 000011AC  E8 00000000 E	    call    WriteString
 000011B1  E8 00000000 E	    call    Crlf
 000011B6  8B 95 0000021C	    mov     EDX,            [EBP+540]
 000011BC  E8 00000000 E	    call    WriteString
 000011C1  E8 00000000 E	    call    Crlf
 000011C6  8B 95 00000220	    mov     EDX,            [EBP+544]
 000011CC  E8 00000000 E	    call    WriteString
 000011D1  E8 00000000 E	    call    Crlf
 000011D6  8B 95 00000224	    mov     EDX,            [EBP+548]
 000011DC  E8 00000000 E	    call    WriteString
 000011E1  E8 00000000 E	    call    Crlf
 000011E6  8B 95 00000228	    mov     EDX,            [EBP+552]
 000011EC  E8 00000000 E	    call    WriteString
 000011F1  E8 00000000 E	    call    Crlf
 000011F6  8B 95 0000022C	    mov     EDX,            [EBP+556]
 000011FC  E8 00000000 E	    call    WriteString
 00001201  E8 00000000 E	    call    Crlf
 00001206  8B 95 00000230	    mov     EDX,            [EBP+560]
 0000120C  E8 00000000 E	    call    WriteString
 00001211  E8 00000000 E	    call    Crlf
 00001216  8B 95 00000234	    mov     EDX,            [EBP+564]
 0000121C  E8 00000000 E	    call    WriteString
 00001221  E8 00000000 E	    call    Crlf
				    ; 2 prompts
 00001226  8B 95 00000238	    mov     EDX,            [EBP+568]
 0000122C  E8 00000000 E	    call    WriteString
 00001231  E8 00000000 E	    call    Crlf
 00001236  8B 95 0000023C	    mov     EDX,            [EBP+572]
 0000123C  E8 00000000 E	    call    WriteString
 00001241  E8 00000000 E	    call    Crlf

 00001246			    Input:
 00001246  8B 55 48		        mov     EDX,            [EBP+72]
 00001249  E8 00000000 E	        call    WriteString
 0000124E  E8 00000000 E	        call    ReadInt

 00001253  83 F8 01		        cmp     EAX,            1
 00001256  74 1A		        je      L5c
 00001258  83 F8 02		        cmp     EAX,            2
 0000125B  74 1D		        je      L5e
 0000125D  EB 01		        jmp     IncorrectInput

 0000125F			    LeaveFunc:
 0000125F  C3			        ret

 00001260			    IncorrectInput:
 00001260  8B 95 000005E4	        mov     EDX,                 [EBP+1508]
 00001266  E8 00000000 E	        call    WriteString
 0000126B  E8 00000000 E	        call    Crlf
 00001270  EB D4		        jmp     Input
 00001272			    L5c:
 00001272  5D			        pop     EBP
 00001273  E8 000007B8		        call    Story5c
 00001278  EB E5		        jmp     LeaveFunc
 0000127A			    L5e:
 0000127A  5D			        pop     EBP
 0000127B  E8 00000954		        call    Story5e
 00001280  EB DD		        jmp     LeaveFunc
 00001282			Story4a ENDP


 00001282			Story4b PROC
 00001282  55			    push    EBP
 00001283  8B EC		    mov     EBP,            ESP

 00001285  E8 00000000 E	    call    ClrScr
				    ; 6 ascii
 0000128A  8B 95 00000240	    mov     EDX,            [EBP+576]
 00001290  E8 00000000 E	    call    WriteString
 00001295  E8 00000000 E	    call    Crlf
 0000129A  8B 95 00000244	    mov     EDX,            [EBP+580]
 000012A0  E8 00000000 E	    call    WriteString
 000012A5  E8 00000000 E	    call    Crlf
 000012AA  8B 95 00000248	    mov     EDX,            [EBP+584]
 000012B0  E8 00000000 E	    call    WriteString
 000012B5  E8 00000000 E	    call    Crlf
 000012BA  8B 95 0000024C	    mov     EDX,            [EBP+588]
 000012C0  E8 00000000 E	    call    WriteString
 000012C5  E8 00000000 E	    call    Crlf
 000012CA  8B 95 00000250	    mov     EDX,            [EBP+592]
 000012D0  E8 00000000 E	    call    WriteString
 000012D5  E8 00000000 E	    call    Crlf
 000012DA  8B 95 00000254	    mov     EDX,            [EBP+596]
 000012E0  E8 00000000 E	    call    WriteString
 000012E5  E8 00000000 E	    call    Crlf
				    ; 5 storylines
 000012EA  8B 95 00000258	    mov     EDX,            [EBP+600]
 000012F0  E8 00000000 E	    call    WriteString
 000012F5  E8 00000000 E	    call    Crlf
 000012FA  8B 95 0000025C	    mov     EDX,            [EBP+604]
 00001300  E8 00000000 E	    call    WriteString
 00001305  E8 00000000 E	    call    Crlf
 0000130A  8B 95 00000260	    mov     EDX,            [EBP+608]
 00001310  E8 00000000 E	    call    WriteString
 00001315  E8 00000000 E	    call    Crlf
 0000131A  8B 95 00000264	    mov     EDX,            [EBP+612]
 00001320  E8 00000000 E	    call    WriteString
 00001325  E8 00000000 E	    call    Crlf
 0000132A  8B 95 00000268	    mov     EDX,            [EBP+616]
 00001330  E8 00000000 E	    call    WriteString
 00001335  E8 00000000 E	    call    Crlf
				    ; 2 prompts
 0000133A  8B 95 0000026C	    mov     EDX,            [EBP+620]
 00001340  E8 00000000 E	    call    WriteString
 00001345  E8 00000000 E	    call    Crlf
 0000134A  8B 95 00000270	    mov     EDX,            [EBP+624]
 00001350  E8 00000000 E	    call    WriteString
 00001355  E8 00000000 E	    call    Crlf

 0000135A			    Input:
 0000135A  8B 55 48		        mov     EDX,            [EBP+72]
 0000135D  E8 00000000 E	        call    WriteString
 00001362  E8 00000000 E	        call    ReadInt

 00001367  83 F8 01		        cmp     EAX,            1
 0000136A  74 1A		        je      L5a
 0000136C  83 F8 02		        cmp     EAX,            2
 0000136F  74 1D		        je      L5b
 00001371  EB 01		        jmp     IncorrectInput

 00001373			    LeaveFunc:
 00001373  C3			        ret

 00001374			    IncorrectInput:
 00001374  8B 95 000005E4	        mov     EDX,                 [EBP+1508]
 0000137A  E8 00000000 E	        call    WriteString
 0000137F  E8 00000000 E	        call    Crlf
 00001384  EB D4		        jmp     Input
 00001386			    L5a:
 00001386  5D			        pop     EBP
 00001387  E8 00000416		        call    Story5a
 0000138C  EB E5		        jmp     LeaveFunc
 0000138E			    L5b:
 0000138E  5D			        pop     EBP
 0000138F  E8 00000468		        call    Story5b
 00001394  EB DD		        jmp     LeaveFunc
 00001396			Story4b ENDP


 00001396			Story4c PROC
 00001396  55			    push    EBP
 00001397  8B EC		    mov     EBP,            ESP

 00001399  E8 00000000 E	    call    ClrScr
				    ; 12 ascii
 0000139E  8B 95 00000274	    mov     EDX,            [EBP+628]
 000013A4  E8 00000000 E	    call    WriteString
 000013A9  E8 00000000 E    call    Crlf
 000013AE  8B 95 00000278	    mov     EDX,            [EBP+632]
 000013B4  E8 00000000 E	    call    WriteString
 000013B9  E8 00000000 E	    call    Crlf
 000013BE  8B 95 0000027C	    mov     EDX,            [EBP+636]
 000013C4  E8 00000000 E	    call    WriteString
 000013C9  E8 00000000 E	    call    Crlf
 000013CE  8B 95 00000280	    mov     EDX,            [EBP+640]
 000013D4  E8 00000000 E	    call    WriteString
 000013D9  E8 00000000 E	    call    Crlf
 000013DE  8B 95 00000284	    mov     EDX,            [EBP+644]
 000013E4  E8 00000000 E	    call    WriteString
 000013E9  E8 00000000 E	    call    Crlf
 000013EE  8B 95 00000288	    mov     EDX,            [EBP+648]
 000013F4  E8 00000000 E	    call    WriteString
 000013F9  E8 00000000 E	    call    Crlf
 000013FE  8B 95 0000028C	    mov     EDX,            [EBP+652]
 00001404  E8 00000000 E	    call    WriteString
 00001409  E8 00000000 E	    call    Crlf
 0000140E  8B 95 00000290	    mov     EDX,            [EBP+656]
 00001414  E8 00000000 E	    call    WriteString
 00001419  E8 00000000 E	    call    Crlf
 0000141E  8B 95 00000294	    mov     EDX,            [EBP+660]
 00001424  E8 00000000 E	    call    WriteString
 00001429  E8 00000000 E	    call    Crlf
 0000142E  8B 95 00000298	    mov     EDX,            [EBP+664]
 00001434  E8 00000000 E	    call    WriteString
 00001439  E8 00000000 E	    call    Crlf
 0000143E  8B 95 0000029C	    mov     EDX,            [EBP+668]
 00001444  E8 00000000 E	    call    WriteString
 00001449  E8 00000000 E	    call    Crlf
 0000144E  8B 95 000002A0	    mov     EDX,            [EBP+672]
 00001454  E8 00000000 E	    call    WriteString
 00001459  E8 00000000 E	    call    Crlf
				    ; 7 storylines
 0000145E  8B 95 000002A4	    mov     EDX,            [EBP+676]
 00001464  E8 00000000 E	    call    WriteString
 00001469  E8 00000000 E	    call    Crlf
 0000146E  8B 95 000002A8	    mov     EDX,            [EBP+680]
 00001474  E8 00000000 E	    call    WriteString
 00001479  E8 00000000 E	    call    Crlf
 0000147E  8B 95 000002AC	    mov     EDX,            [EBP+684]
 00001484  E8 00000000 E	    call    WriteString
 00001489  E8 00000000 E	    call    Crlf
 0000148E  8B 95 000002B0	    mov     EDX,            [EBP+688]
 00001494  E8 00000000 E	    call    WriteString
 00001499  E8 00000000 E	    call    Crlf
 0000149E  8B 95 000002B4	    mov     EDX,            [EBP+692]
 000014A4  E8 00000000 E	    call    WriteString
 000014A9  E8 00000000 E	    call    Crlf
 000014AE  8B 95 000002B8	    mov     EDX,            [EBP+696]
 000014B4  E8 00000000 E	    call    WriteString
 000014B9  E8 00000000 E	    call    Crlf
 000014BE  8B 95 000002BC	    mov     EDX,            [EBP+700]
 000014C4  E8 00000000 E	    call    WriteString
 000014C9  E8 00000000 E	    call    Crlf
				    ; 2 prompts
 000014CE  8B 95 000002C0	    mov     EDX,            [EBP+704]
 000014D4  E8 00000000 E	    call    WriteString
 000014D9  E8 00000000 E	    call    Crlf
 000014DE  8B 95 000002C4	    mov     EDX,            [EBP+708]
 000014E4  E8 00000000 E	    call    WriteString
 000014E9  E8 00000000 E	    call    Crlf

 000014EE			    Input:
 000014EE  8B 55 48		        mov     EDX,            [EBP+72]
 000014F1  E8 00000000 E	        call    WriteString
 000014F6  E8 00000000 E	        call    ReadInt

 000014FB  83 F8 01		        cmp     EAX,            1
 000014FE  74 1A		        je      L5c
 00001500  83 F8 02		        cmp     EAX,            2
 00001503  74 1D		        je      L5e
 00001505  EB 01		        jmp     IncorrectInput

 00001507			    LeaveFunc:
 00001507  C3			        ret

 00001508			    IncorrectInput:
 00001508  8B 95 000005E4	        mov     EDX,                 [EBP+1508]
 0000150E  E8 00000000 E	        call    WriteString
 00001513  E8 00000000 E	        call    Crlf
 00001518  EB D4		        jmp     Input
 0000151A			    L5c:
 0000151A  5D			        pop     EBP
 0000151B  E8 00000510		        call    Story5c
 00001520  EB E5		        jmp     LeaveFunc
 00001522			    L5e:
 00001522  5D			        pop     EBP
 00001523  E8 000006AC		        call    Story5e
 00001528  EB DD		        jmp     LeaveFunc
 0000152A			Story4c ENDP


 0000152A			Story4d PROC
 0000152A  55			    push    EBP
 0000152B  8B EC		    mov     EBP,            ESP

 0000152D  E8 00000000 E	    call    ClrScr
				    ; 12 ascii
 00001532  8B 95 000002C8	    mov     EDX,            [EBP+712]
 00001538  E8 00000000 E	    call    WriteString
 0000153D  E8 00000000 E	    call    Crlf
 00001542  8B 95 000002CC	    mov     EDX,            [EBP+716]
 00001548  E8 00000000 E	    call    WriteString
 0000154D  E8 00000000 E	    call    Crlf
 00001552  8B 95 000002D0	    mov     EDX,            [EBP+720]
 00001558  E8 00000000 E	    call    WriteString
 0000155D  E8 00000000 E	    call    Crlf
 00001562  8B 95 000002D4	    mov     EDX,            [EBP+724]
 00001568  E8 00000000 E	    call    WriteString
 0000156D  E8 00000000 E	    call    Crlf
 00001572  8B 95 000002D8	    mov     EDX,            [EBP+728]
 00001578  E8 00000000 E	    call    WriteString
 0000157D  E8 00000000 E	    call    Crlf
 00001582  8B 95 000002DC	    mov     EDX,            [EBP+732]
 00001588  E8 00000000 E	    call    WriteString
 0000158D  E8 00000000 E	    call    Crlf
 00001592  8B 95 000002E0	    mov     EDX,            [EBP+736]
 00001598  E8 00000000 E	    call    WriteString
 0000159D  E8 00000000 E	    call    Crlf
 000015A2  8B 95 000002E4	    mov     EDX,            [EBP+740]
 000015A8  E8 00000000 E	    call    WriteString
 000015AD  E8 00000000 E	    call    Crlf
 000015B2  8B 95 000002E8	    mov     EDX,            [EBP+744]
 000015B8  E8 00000000 E	    call    WriteString
 000015BD  E8 00000000 E	    call    Crlf
 000015C2  8B 95 000002EC	    mov     EDX,            [EBP+748]
 000015C8  E8 00000000 E	    call    WriteString
 000015CD  E8 00000000 E	    call    Crlf
 000015D2  8B 95 000002F0	    mov     EDX,            [EBP+752]
 000015D8  E8 00000000 E	    call    WriteString
 000015DD  E8 00000000 E	    call    Crlf
 000015E2  8B 95 000002F4	    mov     EDX,            [EBP+756]
 000015E8  E8 00000000 E	    call    WriteString
 000015ED  E8 00000000 E	    call    Crlf
				    ; 7 storylines
 000015F2  8B 95 000002F8	    mov     EDX,            [EBP+760]
 000015F8  E8 00000000 E	    call    WriteString
 000015FD  E8 00000000 E	    call    Crlf
 00001602  8B 95 000002FC	    mov     EDX,            [EBP+764]
 00001608  E8 00000000 E	    call    WriteString
 0000160D  E8 00000000 E	    call    Crlf
 00001612  8B 95 00000300	    mov     EDX,            [EBP+768]
 00001618  E8 00000000 E	    call    WriteString
 0000161D  E8 00000000 E	    call    Crlf
 00001622  8B 95 00000304	    mov     EDX,            [EBP+772]
 00001628  E8 00000000 E	    call    WriteString
 0000162D  E8 00000000 E	    call    Crlf
 00001632  8B 95 00000308	    mov     EDX,            [EBP+776]
 00001638  E8 00000000 E	    call    WriteString
 0000163D  E8 00000000 E	    call    Crlf
 00001642  8B 95 0000030C	    mov     EDX,            [EBP+780]
 00001648  E8 00000000 E	    call    WriteString
 0000164D  E8 00000000 E	    call    Crlf
 00001652  8B 95 00000310	    mov     EDX,            [EBP+784]
 00001658  E8 00000000 E	    call    WriteString
 0000165D  E8 00000000 E	    call    Crlf
				    ; 2 prompts
 00001662  8B 95 00000314	    mov     EDX,            [EBP+788]
 00001668  E8 00000000 E	    call    WriteString
 0000166D  E8 00000000 E	    call    Crlf
 00001672  8B 95 00000318	    mov     EDX,            [EBP+792]
 00001678  E8 00000000 E	    call    WriteString
 0000167D  E8 00000000 E	    call    Crlf

 00001682			    Input:
 00001682  8B 55 48		        mov     EDX,            [EBP+72]
 00001685  E8 00000000 E	        call    WriteString
 0000168A  E8 00000000 E	        call    ReadInt

 0000168F  83 F8 01		        cmp     EAX,            1
 00001692  74 1A		        je      L5c
 00001694  83 F8 02		        cmp     EAX,            2
 00001697  74 1D		        je      L5f
 00001699  EB 01		        jmp     IncorrectInput

 0000169B			    LeaveFunc:
 0000169B  C3			        ret

 0000169C			    IncorrectInput:
 0000169C  8B 95 000005E4	        mov     EDX,                 [EBP+1508]
 000016A2  E8 00000000 E	        call    WriteString
 000016A7  E8 00000000 E	        call    Crlf
 000016AC  EB D4		        jmp     Input
 000016AE			    L5c:
 000016AE  5D			        pop     EBP
 000016AF  E8 0000037C		        call    Story5c
 000016B4  EB E5		        jmp     LeaveFunc
 000016B6			    L5f:
 000016B6  5D			        pop     EBP
 000016B7  E8 00000642		        call    Story5f
 000016BC  EB DD		        jmp     LeaveFunc
 000016BE			Story4d ENDP

 000016BE			Story4e PROC
 000016BE  55			    push    EBP
 000016BF  8B EC		    mov     EBP,            ESP


 000016C1  E8 00000000 E	    call    ClrScr
				    ; N/A ascii
				    ; 8 storylines
 000016C6  8B 95 0000031C	    mov     EDX,            [EBP+796]
 000016CC  E8 00000000 E	    call    WriteString
 000016D1  E8 00000000 E	    call    Crlf
 000016D6  8B 95 00000320	    mov     EDX,            [EBP+800]
 000016DC  E8 00000000 E	    call    WriteString
 000016E1  E8 00000000 E	    call    Crlf
 000016E6  8B 95 00000324	    mov     EDX,            [EBP+804]
 000016EC  E8 00000000 E	    call    WriteString
 000016F1  E8 00000000 E	    call    Crlf
 000016F6  8B 95 00000328	    mov     EDX,            [EBP+808]
 000016FC  E8 00000000 E	    call    WriteString
 00001701  E8 00000000 E	    call    Crlf
 00001706  8B 95 0000032C	    mov     EDX,            [EBP+812]
 0000170C  E8 00000000 E	    call    WriteString
 00001711  E8 00000000 E	    call    Crlf
 00001716  8B 95 00000330	    mov     EDX,            [EBP+816]
 0000171C  E8 00000000 E	    call    WriteString
 00001721  E8 00000000 E	    call    Crlf
 00001726  8B 95 00000334	    mov     EDX,            [EBP+820]
 0000172C  E8 00000000 E	    call    WriteString
 00001731  E8 00000000 E	    call    Crlf
 00001736  8B 95 00000338	    mov     EDX,            [EBP+824]
 0000173C  E8 00000000 E	    call    WriteString
 00001741  E8 00000000 E	    call    Crlf
				    ; 2 prompts
 00001746  8B 95 0000033C	    mov     EDX,            [EBP+828]
 0000174C  E8 00000000 E	    call    WriteString
 00001751  E8 00000000 E	    call    Crlf
 00001756  8B 95 00000340	    mov     EDX,            [EBP+832]
 0000175C  E8 00000000 E	    call    WriteString
 00001761  E8 00000000 E	    call    Crlf

 00001766			    Input:
 00001766  8B 55 48		        mov     EDX,            [EBP+72]
 00001769  E8 00000000 E	        call    WriteString
 0000176E  E8 00000000 E	        call    ReadInt

 00001773  83 F8 01		        cmp     EAX,            1
 00001776  74 1A		        je      L5g
 00001778  83 F8 02		        cmp     EAX,            2
 0000177B  74 1D		        je      L5h
 0000177D  EB 01		        jmp     IncorrectInput

 0000177F			    LeaveFunc:
 0000177F  C3			        ret

 00001780			    IncorrectInput:
 00001780  8B 95 000005E4	        mov     EDX,                 [EBP+1508]
 00001786  E8 00000000 E	        call    WriteString
 0000178B  E8 00000000 E	        call    Crlf
 00001790  EB D4		        jmp     Input
 00001792			    L5g:
 00001792  5D			        pop     EBP
 00001793  E8 00000600		        call    Story5g
 00001798  EB E5		        jmp     LeaveFunc
 0000179A			    L5h:
 0000179A  5D			        pop     EBP
 0000179B  E8 00000702		        call    Story5h
 000017A0  EB DD		        jmp     LeaveFunc
 000017A2			Story4e ENDP


 000017A2			Story5a PROC
 000017A2  55			    push    EBP
 000017A3  8B EC		    mov     EBP,            ESP

 000017A5  E8 00000000 E	    call    ClrScr
				    ; N/A ascii
				    ; 5 storylines
 000017AA  8B 95 00000344	    mov     EDX,            [EBP+836]
 000017B0  E8 00000000 E	    call    WriteString
 000017B5  E8 00000000 E	    call    Crlf
 000017BA  8B 95 00000348	    mov     EDX,            [EBP+840]
 000017C0  E8 00000000 E	    call    WriteString
 000017C5  E8 00000000 E	    call    Crlf
 000017CA  8B 95 0000034C	    mov     EDX,            [EBP+844]
 000017D0  E8 00000000 E	    call    WriteString
 000017D5  E8 00000000 E	    call    Crlf
 000017DA  8B 95 00000350	    mov     EDX,            [EBP+848]
 000017E0  E8 00000000 E	    call    WriteString
 000017E5  E8 00000000 E	    call    Crlf
 000017EA  8B 95 00000354	    mov     EDX,            [EBP+852]
 000017F0  E8 00000000 E	    call    WriteString
 000017F5  E8 00000000 E	    call    Crlf
				    ; N/A prompts

 000017FA  5D			        pop     EBP
 000017FB  C3			        ret
 000017FC			Story5a ENDP


 000017FC			Story5b PROC
 000017FC  55			    push    EBP
 000017FD  8B EC		    mov     EBP,            ESP


 000017FF  E8 00000000 E	    call    ClrScr
				    ; 9 ascii
 00001804  8B 95 00000358	    mov     EDX,            [EBP+856]
 0000180A  E8 00000000 E	    call    WriteString
 0000180F  E8 00000000 E	    call    Crlf
 00001814  8B 95 0000035C	    mov     EDX,            [EBP+860]
 0000181A  E8 00000000 E	    call    WriteString
 0000181F  E8 00000000 E	    call    Crlf
 00001824  8B 95 00000360	    mov     EDX,            [EBP+864]
 0000182A  E8 00000000 E	    call    WriteString
 0000182F  E8 00000000 E	    call    Crlf
 00001834  8B 95 00000364	    mov     EDX,            [EBP+868]
 0000183A  E8 00000000 E	    call    WriteString
 0000183F  E8 00000000 E	    call    Crlf
 00001844  8B 95 00000368	    mov     EDX,            [EBP+872]
 0000184A  E8 00000000 E	    call    WriteString
 0000184F  E8 00000000 E	    call    Crlf
 00001854  8B 95 0000036C	    mov     EDX,            [EBP+876]
 0000185A  E8 00000000 E	    call    WriteString
 0000185F  E8 00000000 E	    call    Crlf
 00001864  8B 95 00000370	    mov     EDX,            [EBP+880]
 0000186A  E8 00000000 E	    call    WriteString
 0000186F  E8 00000000 E	    call    Crlf
 00001874  8B 95 00000374	    mov     EDX,            [EBP+884]
 0000187A  E8 00000000 E	    call    WriteString
 0000187F  E8 00000000 E	    call    Crlf
 00001884  8B 95 00000378	    mov     EDX,            [EBP+888]
 0000188A  E8 00000000 E	    call    WriteString
 0000188F  E8 00000000 E	    call    Crlf
				    ; 20 storylines
 00001894  8B 95 0000037C	    mov     EDX,            [EBP+892]
 0000189A  E8 00000000 E	    call    WriteString
 0000189F  E8 00000000 E	    call    Crlf
 000018A4  8B 95 00000380	    mov     EDX,            [EBP+896]
 000018AA  E8 00000000 E	    call    WriteString
 000018AF  E8 00000000 E	    call    Crlf
 000018B4  8B 95 00000384	    mov     EDX,            [EBP+900]
 000018BA  E8 00000000 E	    call    WriteString
 000018BF  E8 00000000 E	    call    Crlf
 000018C4  8B 95 00000388	    mov     EDX,            [EBP+904]
 000018CA  E8 00000000 E	    call    WriteString
 000018CF  E8 00000000 E	    call    Crlf
 000018D4  8B 95 0000038C	    mov     EDX,            [EBP+908]
 000018DA  E8 00000000 E	    call    WriteString
 000018DF  E8 00000000 E	    call    Crlf
 000018E4  8B 95 00000390	    mov     EDX,            [EBP+912]
 000018EA  E8 00000000 E	    call    WriteString
 000018EF  E8 00000000 E	    call    Crlf
 000018F4  8B 95 00000394	    mov     EDX,            [EBP+916]
 000018FA  E8 00000000 E	    call    WriteString
 000018FF  E8 00000000 E	    call    Crlf
 00001904  8B 95 00000398	    mov     EDX,            [EBP+920]
 0000190A  E8 00000000 E	    call    WriteString
 0000190F  E8 00000000 E	    call    Crlf
 00001914  8B 95 0000039C	    mov     EDX,            [EBP+924]
 0000191A  E8 00000000 E	    call    WriteString
 0000191F  E8 00000000 E	    call    Crlf
 00001924  8B 95 000003A0	    mov     EDX,            [EBP+928]
 0000192A  E8 00000000 E	    call    WriteString
 0000192F  E8 00000000 E	    call    Crlf
 00001934  8B 95 000003A4	    mov     EDX,            [EBP+932]
 0000193A  E8 00000000 E	    call    WriteString
 0000193F  E8 00000000 E	    call    Crlf
 00001944  8B 95 000003A8	    mov     EDX,            [EBP+936]
 0000194A  E8 00000000 E	    call    WriteString
 0000194F  E8 00000000 E	    call    Crlf
 00001954  8B 95 000003AC	    mov     EDX,            [EBP+940]
 0000195A  E8 00000000 E	    call    WriteString
 0000195F  E8 00000000 E	    call    Crlf
 00001964  8B 95 000003B0	    mov     EDX,            [EBP+944]
 0000196A  E8 00000000 E	    call    WriteString
 0000196F  E8 00000000 E	    call    Crlf
 00001974  8B 95 000003B4	    mov     EDX,            [EBP+948]
 0000197A  E8 00000000 E	    call    WriteString
 0000197F  E8 00000000 E	    call    Crlf
 00001984  8B 95 000003B8	    mov     EDX,            [EBP+952]
 0000198A  E8 00000000 E	    call    WriteString
 0000198F  E8 00000000 E	    call    Crlf
 00001994  8B 95 000003BC	    mov     EDX,            [EBP+956]
 0000199A  E8 00000000 E	    call    WriteString
 0000199F  E8 00000000 E	    call    Crlf
 000019A4  8B 95 000003C0	    mov     EDX,            [EBP+960]
 000019AA  E8 00000000 E	    call    WriteString
 000019AF  E8 00000000 E	    call    Crlf
 000019B4  8B 95 000003C4	    mov     EDX,            [EBP+964]
 000019BA  E8 00000000 E	    call    WriteString
 000019BF  E8 00000000 E	    call    Crlf
 000019C4  8B 95 000003C8	    mov     EDX,            [EBP+968]
 000019CA  E8 00000000 E	    call    WriteString
 000019CF  E8 00000000 E	    call    Crlf
				    ; 2 prompts
 000019D4  8B 95 000003CC	    mov     EDX,            [EBP+972]
 000019DA  E8 00000000 E	    call    WriteString
 000019DF  E8 00000000 E	    call    Crlf
 000019E4  8B 95 000003D0	    mov     EDX,            [EBP+976]
 000019EA  E8 00000000 E	    call    WriteString
 000019EF  E8 00000000 E	    call    Crlf

 000019F4			    Input:
 000019F4  8B 55 48		        mov     EDX,            [EBP+72]
 000019F7  E8 00000000 E	        call    WriteString
 000019FC  E8 00000000 E	        call    ReadInt

 00001A01  83 F8 01		        cmp     EAX,            1
 00001A04  74 1A		        je      L7a
 00001A06  83 F8 02		        cmp     EAX,            2
 00001A09  74 1D		        je      L7b
 00001A0B  EB 01		        jmp     IncorrectInput

 00001A0D			    LeaveFunc:
 00001A0D  C3			        ret

 00001A0E			    IncorrectInput:
 00001A0E  8B 95 000005E4	        mov     EDX,                 [EBP+1508]
 00001A14  E8 00000000 E	        call    WriteString
 00001A19  E8 00000000 E	        call    Crlf
 00001A1E  EB D4		        jmp     Input
 00001A20			    L7a:
 00001A20  5D			        pop     EBP
 00001A21  E8 0000075A		        call    Story7a
 00001A26  EB E5		        jmp     LeaveFunc
 00001A28			    L7b:
 00001A28  5D			        pop     EBP
 00001A29  E8 0000081C		        call    Story7b
 00001A2E  EB DD		        jmp     LeaveFunc
 00001A30			Story5b ENDP


 00001A30			Story5c PROC
 00001A30  55			    push    EBP
 00001A31  8B EC		    mov     EBP,            ESP


 00001A33  E8 00000000 E	    call    ClrScr
				    ; 10 ascii
 00001A38  8B 95 000003D4	    mov     EDX,            [EBP+980]
 00001A3E  E8 00000000 E	    call    WriteString
 00001A43  E8 00000000 E	    call    Crlf
 00001A48  8B 95 000003D8	    mov     EDX,            [EBP+984]
 00001A4E  E8 00000000 E	    call    WriteString
 00001A53  E8 00000000 E	    call    Crlf
 00001A58  8B 95 000003DC	    mov     EDX,            [EBP+988]
 00001A5E  E8 00000000 E	    call    WriteString
 00001A63  E8 00000000 E	    call    Crlf
 00001A68  8B 95 000003E0	    mov     EDX,            [EBP+992]
 00001A6E  E8 00000000 E	    call    WriteString
 00001A73  E8 00000000 E	    call    Crlf
 00001A78  8B 95 000003E4	    mov     EDX,            [EBP+996]
 00001A7E  E8 00000000 E	    call    WriteString
 00001A83  E8 00000000 E	    call    Crlf
 00001A88  8B 95 000003E8	    mov     EDX,            [EBP+1000]
 00001A8E  E8 00000000 E	    call    WriteString
 00001A93  E8 00000000 E	    call    Crlf
 00001A98  8B 95 000003EC	    mov     EDX,            [EBP+1004]
 00001A9E  E8 00000000 E	    call    WriteString
 00001AA3  E8 00000000 E	    call    Crlf
 00001AA8  8B 95 000003F0	    mov     EDX,            [EBP+1008]
 00001AAE  E8 00000000 E	    call    WriteString
 00001AB3  E8 00000000 E	    call    Crlf
 00001AB8  8B 95 000003F4	    mov     EDX,            [EBP+1012]
 00001ABE  E8 00000000 E	    call    WriteString
 00001AC3  E8 00000000 E	    call    Crlf
 00001AC8  8B 95 000003F8	    mov     EDX,            [EBP+1016]
 00001ACE  E8 00000000 E	    call    WriteString
 00001AD3  E8 00000000 E	    call    Crlf
				    ; 10 storylines
 00001AD8  8B 95 000003FC	    mov     EDX,            [EBP+1020]
 00001ADE  E8 00000000 E	    call    WriteString
 00001AE3  E8 00000000 E	    call    Crlf
 00001AE8  8B 95 00000400	    mov     EDX,            [EBP+1024]
 00001AEE  E8 00000000 E	    call    WriteString
 00001AF3  E8 00000000 E	    call    Crlf
 00001AF8  8B 95 00000404	    mov     EDX,            [EBP+1028]
 00001AFE  E8 00000000 E	    call    WriteString
 00001B03  E8 00000000 E	    call    Crlf
 00001B08  8B 95 00000408	    mov     EDX,            [EBP+1032]
 00001B0E  E8 00000000 E	    call    WriteString
 00001B13  E8 00000000 E	    call    Crlf
 00001B18  8B 95 0000040C	    mov     EDX,            [EBP+1036]
 00001B1E  E8 00000000 E	    call    WriteString
 00001B23  E8 00000000 E	    call    Crlf
 00001B28  8B 95 00000410	    mov     EDX,            [EBP+1040]
 00001B2E  E8 00000000 E	    call    WriteString
 00001B33  E8 00000000 E	    call    Crlf
 00001B38  8B 95 00000414	    mov     EDX,            [EBP+1044]
 00001B3E  E8 00000000 E	    call    WriteString
 00001B43  E8 00000000 E	    call    Crlf
 00001B48  8B 95 00000418	    mov     EDX,            [EBP+1048]
 00001B4E  E8 00000000 E	    call    WriteString
 00001B53  E8 00000000 E	    call    Crlf
 00001B58  8B 95 0000041C	    mov     EDX,            [EBP+1052]
 00001B5E  E8 00000000 E	    call    WriteString
 00001B63  E8 00000000 E	    call    Crlf
 00001B68  8B 95 00000420	    mov     EDX,            [EBP+1056]
 00001B6E  E8 00000000 E	    call    WriteString
 00001B73  E8 00000000 E	    call    Crlf
				    ; 2 prompts
 00001B78  8B 95 00000424	    mov     EDX,            [EBP+1060]
 00001B7E  E8 00000000 E	    call    WriteString
 00001B83  E8 00000000 E	    call    Crlf
 00001B88  8B 95 00000428	    mov     EDX,            [EBP+1064]
 00001B8E  E8 00000000 E	    call    WriteString
 00001B93  E8 00000000 E	    call    Crlf

 00001B98			    Input:
 00001B98  8B 55 48		        mov     EDX,            [EBP+72]
 00001B9B  E8 00000000 E	        call    WriteString
 00001BA0  E8 00000000 E	        call    ReadInt

 00001BA5  83 F8 01		        cmp     EAX,            1
 00001BA8  74 1A		        je      L6a
 00001BAA  83 F8 02		        cmp     EAX,            2
 00001BAD  74 1D		        je      L6b
 00001BAF  EB 01		        jmp     IncorrectInput

 00001BB1			    LeaveFunc:
 00001BB1  C3			        ret

 00001BB2			    IncorrectInput:
 00001BB2  8B 95 000005E8	        mov     EDX,                 [EBP+1512]
 00001BB8  E8 00000000 E	        call    WriteString
 00001BBD  E8 00000000 E	        call    Crlf
 00001BC2  EB D4		        jmp     Input
 00001BC4			    L6a:
 00001BC4  5D			        pop     EBP
 00001BC5  E8 00000332		        call    Story6a
 00001BCA  EB E5		        jmp     LeaveFunc
 00001BCC			    L6b:
 00001BCC  5D			        pop     EBP
 00001BCD  E8 00000454		        call    Story6b
 00001BD2  EB DD		        jmp     LeaveFunc
 00001BD4			Story5c ENDP


				; no 5d, for my sanity I didn't go through and change the names
 00001BD4			Story5e PROC
 00001BD4  55			    push    EBP
 00001BD5  8B EC		    mov     EBP,            ESP


 00001BD7  E8 00000000 E	    call    ClrScr
				    ; 9 ascii
 00001BDC  8B 95 0000042C	    mov     EDX,            [EBP+1068]
 00001BE2  E8 00000000 E	    call    WriteString
 00001BE7  E8 00000000 E	    call    Crlf
 00001BEC  8B 95 00000430	    mov     EDX,            [EBP+1072]
 00001BF2  E8 00000000 E	    call    WriteString
 00001BF7  E8 00000000 E	    call    Crlf
 00001BFC  8B 95 00000434	    mov     EDX,            [EBP+1076]
 00001C02  E8 00000000 E	    call    WriteString
 00001C07  E8 00000000 E	    call    Crlf
 00001C0C  8B 95 00000438	    mov     EDX,            [EBP+1080]
 00001C12  E8 00000000 E	    call    WriteString
 00001C17  E8 00000000 E	    call    Crlf
 00001C1C  8B 95 0000043C	    mov     EDX,            [EBP+1084]
 00001C22  E8 00000000 E	    call    WriteString
 00001C27  E8 00000000 E	    call    Crlf
 00001C2C  8B 95 00000440	    mov     EDX,            [EBP+1088]
 00001C32  E8 00000000 E	    call    WriteString
 00001C37  E8 00000000 E	    call    Crlf
 00001C3C  8B 95 00000444	    mov     EDX,            [EBP+1092]
 00001C42  E8 00000000 E	    call    WriteString
 00001C47  E8 00000000 E	    call    Crlf
 00001C4C  8B 95 00000448	    mov     EDX,            [EBP+1096]
 00001C52  E8 00000000 E	    call    WriteString
 00001C57  E8 00000000 E	    call    Crlf
 00001C5C  8B 95 0000044C	    mov     EDX,            [EBP+1100]
 00001C62  E8 00000000 E	    call    WriteString
 00001C67  E8 00000000 E	    call    Crlf
				    ; 9 storylines
 00001C6C  8B 95 00000450	    mov     EDX,            [EBP+1104]
 00001C72  E8 00000000 E	    call    WriteString
 00001C77  E8 00000000 E	    call    Crlf
 00001C7C  8B 95 00000454	    mov     EDX,            [EBP+1108]
 00001C82  E8 00000000 E	    call    WriteString
 00001C87  E8 00000000 E	    call    Crlf
 00001C8C  8B 95 00000458	    mov     EDX,            [EBP+1112]
 00001C92  E8 00000000 E	    call    WriteString
 00001C97  E8 00000000 E	    call    Crlf
 00001C9C  8B 95 0000045C	    mov     EDX,            [EBP+1116]
 00001CA2  E8 00000000 E	    call    WriteString
 00001CA7  E8 00000000 E	    call    Crlf
 00001CAC  8B 95 00000460	    mov     EDX,            [EBP+1120]
 00001CB2  E8 00000000 E	    call    WriteString
 00001CB7  E8 00000000 E	    call    Crlf
 00001CBC  8B 95 00000464	    mov     EDX,            [EBP+1124]
 00001CC2  E8 00000000 E	    call    WriteString
 00001CC7  E8 00000000 E	    call    Crlf
 00001CCC  8B 95 00000468	    mov     EDX,            [EBP+1128]
 00001CD2  E8 00000000 E	    call    WriteString
 00001CD7  E8 00000000 E	    call    Crlf
 00001CDC  8B 95 0000046C	    mov     EDX,            [EBP+1132]
 00001CE2  E8 00000000 E	    call    WriteString
 00001CE7  E8 00000000 E	    call    Crlf
 00001CEC  8B 95 00000470	    mov     EDX,            [EBP+1136]
 00001CF2  E8 00000000 E	    call    WriteString
 00001CF7  E8 00000000 E	    call    Crlf
				    ; N/A prompts

 00001CFC  5D			    pop     EBP
 00001CFD  C3			    ret
 00001CFE			Story5e ENDP


 00001CFE			Story5f PROC
 00001CFE  55			    push    EBP
 00001CFF  8B EC		    mov     EBP,            ESP


 00001D01  E8 00000000 E	    call    ClrScr
				    ; N/A ascii
				    ; 9 storylines
 00001D06  8B 95 00000474	    mov     EDX,            [EBP+1140]
 00001D0C  E8 00000000 E	    call    WriteString
 00001D11  E8 00000000 E	    call    Crlf
 00001D16  8B 95 00000478	    mov     EDX,            [EBP+1144]
 00001D1C  E8 00000000 E	    call    WriteString
 00001D21  E8 00000000 E	    call    Crlf
 00001D26  8B 95 0000047C	    mov     EDX,            [EBP+1148]
 00001D2C  E8 00000000 E	    call    WriteString
 00001D31  E8 00000000 E	    call    Crlf
 00001D36  8B 95 00000480	    mov     EDX,            [EBP+1152]
 00001D3C  E8 00000000 E	    call    WriteString
 00001D41  E8 00000000 E	    call    Crlf
 00001D46  8B 95 00000484	    mov     EDX,            [EBP+1156]
 00001D4C  E8 00000000 E	    call    WriteString
 00001D51  E8 00000000 E	    call    Crlf
 00001D56  8B 95 00000488	    mov     EDX,            [EBP+1160]
 00001D5C  E8 00000000 E	    call    WriteString
 00001D61  E8 00000000 E	    call    Crlf
 00001D66  8B 95 0000048C	    mov     EDX,            [EBP+1164]
 00001D6C  E8 00000000 E	    call    WriteString
 00001D71  E8 00000000 E	    call    Crlf
 00001D76  8B 95 00000490	    mov     EDX,            [EBP+1168]
 00001D7C  E8 00000000 E	    call    WriteString
 00001D81  E8 00000000 E	    call    Crlf
 00001D86  8B 95 00000494	    mov     EDX,            [EBP+1172]
 00001D8C  E8 00000000 E	    call    WriteString
 00001D91  E8 00000000 E	    call    Crlf
				    ; N/A prompts

 00001D96  5D			    pop     EBP
 00001D97  C3			    ret
 00001D98			Story5f ENDP


 00001D98			Story5g PROC
 00001D98  55			    push    EBP
 00001D99  8B EC		    mov     EBP,            ESP


 00001D9B  E8 00000000 E	    call    ClrScr
				    ; 12 ascii
 00001DA0  8B 95 00000498	    mov     EDX,            [EBP+1176]
 00001DA6  E8 00000000 E	    call    WriteString
 00001DAB  E8 00000000 E	    call    Crlf
 00001DB0  8B 95 0000049C	    mov     EDX,            [EBP+1180]
 00001DB6  E8 00000000 E	    call    WriteString
 00001DBB  E8 00000000 E	    call    Crlf
 00001DC0  8B 95 000004A0	    mov     EDX,            [EBP+1184]
 00001DC6  E8 00000000 E	    call    WriteString
 00001DCB  E8 00000000 E	    call    Crlf
 00001DD0  8B 95 000004A4	    mov     EDX,            [EBP+1188]
 00001DD6  E8 00000000 E	    call    WriteString
 00001DDB  E8 00000000 E	    call    Crlf
 00001DE0  8B 95 000004A8	    mov     EDX,            [EBP+1192]
 00001DE6  E8 00000000 E	    call    WriteString
 00001DEB  E8 00000000 E	    call    Crlf
 00001DF0  8B 95 000004AC	    mov     EDX,            [EBP+1196]
 00001DF6  E8 00000000 E	    call    WriteString
 00001DFB  E8 00000000 E	    call    Crlf
 00001E00  8B 95 000004B0	    mov     EDX,            [EBP+1200]
 00001E06  E8 00000000 E	    call    WriteString
 00001E0B  E8 00000000 E	    call    Crlf
 00001E10  8B 95 000004B4	    mov     EDX,            [EBP+1204]
 00001E16  E8 00000000 E	    call    WriteString
 00001E1B  E8 00000000 E	    call    Crlf
 00001E20  8B 95 000004B8	    mov     EDX,            [EBP+1208]
 00001E26  E8 00000000 E	    call    WriteString
 00001E2B  E8 00000000 E	    call    Crlf
 00001E30  8B 95 000004BC	    mov     EDX,            [EBP+1212]
 00001E36  E8 00000000 E	    call    WriteString
 00001E3B  E8 00000000 E	    call    Crlf
 00001E40  8B 95 000004C0	    mov     EDX,            [EBP+1216]
 00001E46  E8 00000000 E	    call    WriteString
 00001E4B  E8 00000000 E	    call    Crlf
 00001E50  8B 95 000004C4	    mov     EDX,            [EBP+1220]
 00001E56  E8 00000000 E	    call    WriteString
 00001E5B  E8 00000000 E	    call    Crlf
				    ; 4 storylines
 00001E60  8B 95 000004C8	    mov     EDX,            [EBP+1224]
 00001E66  E8 00000000 E	    call    WriteString
 00001E6B  E8 00000000 E	    call    Crlf
 00001E70  8B 95 000004CC	    mov     EDX,            [EBP+1228]
 00001E76  E8 00000000 E	    call    WriteString
 00001E7B  E8 00000000 E	    call    Crlf
 00001E80  8B 95 000004D0	    mov     EDX,            [EBP+1232]
 00001E86  E8 00000000 E	    call    WriteString
 00001E8B  E8 00000000 E	    call    Crlf
 00001E90  8B 95 000004D4	    mov     EDX,            [EBP+1236]
 00001E96  E8 00000000 E	    call    WriteString
 00001E9B  E8 00000000 E	    call    Crlf
				    ; N/A prompts

 00001EA0  5D			    pop     EBP
 00001EA1  C3			    ret
 00001EA2			Story5g ENDP


 00001EA2			Story5h PROC
 00001EA2  55			    push    EBP
 00001EA3  8B EC		    mov     EBP,            ESP


 00001EA5  E8 00000000 E	    call    ClrScr
				    ; N/A ascii
				    ; 5 storylines
 00001EAA  8B 95 000004D8	    mov     EDX,            [EBP+1240]
 00001EB0  E8 00000000 E	    call    WriteString
 00001EB5  E8 00000000 E	    call    Crlf
 00001EBA  8B 95 000004DC	    mov     EDX,            [EBP+1244]
 00001EC0  E8 00000000 E	    call    WriteString
 00001EC5  E8 00000000 E	    call    Crlf
 00001ECA  8B 95 000004E0	    mov     EDX,            [EBP+1248]
 00001ED0  E8 00000000 E	    call    WriteString
 00001ED5  E8 00000000 E	    call    Crlf
 00001EDA  8B 95 000004E4	    mov     EDX,            [EBP+1252]
 00001EE0  E8 00000000 E	    call    WriteString
 00001EE5  E8 00000000 E	    call    Crlf
 00001EEA  8B 95 000004E8	    mov     EDX,            [EBP+1256]
 00001EF0  E8 00000000 E	    call    WriteString
 00001EF5  E8 00000000 E	    call    Crlf
				    ; N/A prompts

 00001EFA  5D			    pop     EBP
 00001EFB  C3			    ret
 00001EFC			Story5h ENDP


 00001EFC			Story6a PROC
 00001EFC  55			    push    EBP
 00001EFD  8B EC		    mov     EBP,            ESP


 00001EFF  E8 00000000 E	    call    ClrScr
				    ; 12 ascii
 00001F04  8B 95 000004EC	    mov     EDX,            [EBP+1260]
 00001F0A  E8 00000000 E	    call    WriteString
 00001F0F  E8 00000000 E	    call    Crlf
 00001F14  8B 95 000004F0	    mov     EDX,            [EBP+1264]
 00001F1A  E8 00000000 E	    call    WriteString
 00001F1F  E8 00000000 E	    call    Crlf
 00001F24  8B 95 000004F4	    mov     EDX,            [EBP+1268]
 00001F2A  E8 00000000 E	    call    WriteString
 00001F2F  E8 00000000 E	    call    Crlf
 00001F34  8B 95 000004F8	    mov     EDX,            [EBP+1272]
 00001F3A  E8 00000000 E	    call    WriteString
 00001F3F  E8 00000000 E	    call    Crlf
 00001F44  8B 95 000004FC	    mov     EDX,            [EBP+1276]
 00001F4A  E8 00000000 E	    call    WriteString
 00001F4F  E8 00000000 E	    call    Crlf
 00001F54  8B 95 00000500	    mov     EDX,            [EBP+1280]
 00001F5A  E8 00000000 E	    call    WriteString
 00001F5F  E8 00000000 E	    call    Crlf
 00001F64  8B 95 00000504	    mov     EDX,            [EBP+1284]
 00001F6A  E8 00000000 E	    call    WriteString
 00001F6F  E8 00000000 E	    call    Crlf
 00001F74  8B 95 00000508	    mov     EDX,            [EBP+1288]
 00001F7A  E8 00000000 E	    call    WriteString
 00001F7F  E8 00000000 E	    call    Crlf
 00001F84  8B 95 0000050C	    mov     EDX,            [EBP+1292]
 00001F8A  E8 00000000 E	    call    WriteString
 00001F8F  E8 00000000 E	    call    Crlf
 00001F94  8B 95 00000510	    mov     EDX,            [EBP+1296]
 00001F9A  E8 00000000 E	    call    WriteString
 00001F9F  E8 00000000 E	    call    Crlf
 00001FA4  8B 95 00000514	    mov     EDX,            [EBP+1300]
 00001FAA  E8 00000000 E	    call    WriteString
 00001FAF  E8 00000000 E	    call    Crlf
 00001FB4  8B 95 00000519	    mov     EDX,            [EBP+1305]
 00001FBA  E8 00000000 E	    call    WriteString
 00001FBF  E8 00000000 E	    call    Crlf
				    ; 6 storylines
 00001FC4  8B 95 0000051C	    mov     EDX,            [EBP+1308]
 00001FCA  E8 00000000 E	    call    WriteString
 00001FCF  E8 00000000 E	    call    Crlf
 00001FD4  8B 95 00000520	    mov     EDX,            [EBP+1312]
 00001FDA  E8 00000000 E	    call    WriteString
 00001FDF  E8 00000000 E	    call    Crlf
 00001FE4  8B 95 00000524	    mov     EDX,            [EBP+1316]
 00001FEA  E8 00000000 E	    call    WriteString
 00001FEF  E8 00000000 E	    call    Crlf
 00001FF4  8B 95 00000528	    mov     EDX,            [EBP+1320]
 00001FFA  E8 00000000 E	    call    WriteString
 00001FFF  E8 00000000 E	    call    Crlf
 00002004  8B 95 0000052C	    mov     EDX,            [EBP+1324]
 0000200A  E8 00000000 E	    call    WriteString
 0000200F  E8 00000000 E	    call    Crlf
 00002014  8B 95 00000530	    mov     EDX,            [EBP+1328]
 0000201A  E8 00000000 E	    call    WriteString
 0000201F  E8 00000000 E	    call    Crlf
				    ; N/A prompts

 00002024  5D			    pop     EBP
 00002025  C3			    ret
 00002026			Story6a ENDP


 00002026			Story6b PROC
 00002026  55			    push    EBP
 00002027  8B EC		    mov     EBP,            ESP


 00002029  E8 00000000 E	    call    ClrScr
				    ; 15 ascii
 0000202E  8B 95 00000534	    mov     EDX,            [EBP+1332]
 00002034  E8 00000000 E	    call    WriteString
 00002039  E8 00000000 E	    call    Crlf
 0000203E  8B 95 00000538	    mov     EDX,            [EBP+1336]
 00002044  E8 00000000 E	    call    WriteString
 00002049  E8 00000000 E	    call    Crlf
 0000204E  8B 95 0000053C	    mov     EDX,            [EBP+1340]
 00002054  E8 00000000 E	    call    WriteString
 00002059  E8 00000000 E	    call    Crlf
 0000205E  8B 95 00000540	    mov     EDX,            [EBP+1344]
 00002064  E8 00000000 E	    call    WriteString
 00002069  E8 00000000 E	    call    Crlf
 0000206E  8B 95 00000544	    mov     EDX,            [EBP+1348]
 00002074  E8 00000000 E	    call    WriteString
 00002079  E8 00000000 E	    call    Crlf
 0000207E  8B 95 00000548	    mov     EDX,            [EBP+1352]
 00002084  E8 00000000 E	    call    WriteString
 00002089  E8 00000000 E	    call    Crlf
 0000208E  8B 95 0000054C	    mov     EDX,            [EBP+1356]
 00002094  E8 00000000 E	    call    WriteString
 00002099  E8 00000000 E	    call    Crlf
 0000209E  8B 95 00000550	    mov     EDX,            [EBP+1360]
 000020A4  E8 00000000 E	    call    WriteString
 000020A9  E8 00000000 E	    call    Crlf
 000020AE  8B 95 00000554	    mov     EDX,            [EBP+1364]
 000020B4  E8 00000000 E	    call    WriteString
 000020B9  E8 00000000 E	    call    Crlf
 000020BE  8B 95 00000558	    mov     EDX,            [EBP+1368]
 000020C4  E8 00000000 E	    call    WriteString
 000020C9  E8 00000000 E	    call    Crlf
 000020CE  8B 95 0000055C	    mov     EDX,            [EBP+1372]
 000020D4  E8 00000000 E	    call    WriteString
 000020D9  E8 00000000 E	    call    Crlf
 000020DE  8B 95 00000560	    mov     EDX,            [EBP+1376]
 000020E4  E8 00000000 E	    call    WriteString
 000020E9  E8 00000000 E	    call    Crlf
 000020EE  8B 95 00000564	    mov     EDX,            [EBP+1380]
 000020F4  E8 00000000 E	    call    WriteString
 000020F9  E8 00000000 E	    call    Crlf
 000020FE  8B 95 00000568	    mov     EDX,            [EBP+1384]
 00002104  E8 00000000 E	    call    WriteString
 00002109  E8 00000000 E	    call    Crlf
 0000210E  8B 95 0000056C	    mov     EDX,            [EBP+1388]
 00002114  E8 00000000 E	    call    WriteString
 00002119  E8 00000000 E	    call    Crlf
				    ; 6 storylines
 0000211E  8B 95 00000570	    mov     EDX,            [EBP+1392]
 00002124  E8 00000000 E	    call    WriteString
 00002129  E8 00000000 E	    call    Crlf
 0000212E  8B 95 00000574	    mov     EDX,            [EBP+1396]
 00002134  E8 00000000 E	    call    WriteString
 00002139  E8 00000000 E	    call    Crlf
 0000213E  8B 95 00000578	    mov     EDX,            [EBP+1400]
 00002144  E8 00000000 E	    call    WriteString
 00002149  E8 00000000 E	    call    Crlf
 0000214E  8B 95 0000057C	    mov     EDX,            [EBP+1404]
 00002154  E8 00000000 E	    call    WriteString
 00002159  E8 00000000 E	    call    Crlf
 0000215E  8B 95 00000580	    mov     EDX,            [EBP+1408]
 00002164  E8 00000000 E	    call    WriteString
 00002169  E8 00000000 E	    call    Crlf
 0000216E  8B 95 00000584	    mov     EDX,            [EBP+1412]
 00002174  E8 00000000 E	    call    WriteString
 00002179  E8 00000000 E	    call    Crlf
				    ; N/A prompts

 0000217E  5D			    pop     EBP
 0000217F  C3			    ret
 00002180			Story6b ENDP


 00002180			Story7a PROC
 00002180  55			    push    EBP
 00002181  8B EC		    mov     EBP,            ESP


 00002183  E8 00000000 E	    call    ClrScr
				    ; 8 ascii
 00002188  8B 95 00000588	    mov     EDX,            [EBP+1416]
 0000218E  E8 00000000 E	    call    WriteString
 00002193  E8 00000000 E	    call    Crlf
 00002198  8B 95 0000058C	    mov     EDX,            [EBP+1420]
 0000219E  E8 00000000 E	    call    WriteString
 000021A3  E8 00000000 E	    call    Crlf
 000021A8  8B 95 00000590	    mov     EDX,            [EBP+1424]
 000021AE  E8 00000000 E	    call    WriteString
 000021B3  E8 00000000 E	    call    Crlf
 000021B8  8B 95 00000594	    mov     EDX,            [EBP+1428]
 000021BE  E8 00000000 E	    call    WriteString
 000021C3  E8 00000000 E	    call    Crlf
 000021C8  8B 95 00000598	    mov     EDX,            [EBP+1432]
 000021CE  E8 00000000 E	    call    WriteString
 000021D3  E8 00000000 E	    call    Crlf
 000021D8  8B 95 0000059C	    mov     EDX,            [EBP+1436]
 000021DE  E8 00000000 E	    call    WriteString
 000021E3  E8 00000000 E	    call    Crlf
 000021E8  8B 95 000005A0	    mov     EDX,            [EBP+1440]
 000021EE  E8 00000000 E	    call    WriteString
 000021F3  E8 00000000 E	    call    Crlf
 000021F8  8B 95 000005A4	    mov     EDX,            [EBP+1444]
 000021FE  E8 00000000 E	    call    WriteString
 00002203  E8 00000000 E	    call    Crlf
				    ; 4 storylines
 00002208  8B 95 000005A8	    mov     EDX,            [EBP+1448]
 0000220E  E8 00000000 E	    call    WriteString
 00002213  E8 00000000 E	    call    Crlf
 00002218  8B 95 000005AC	    mov     EDX,            [EBP+1452]
 0000221E  E8 00000000 E	    call    WriteString
 00002223  E8 00000000 E	    call    Crlf
 00002228  8B 95 000005B0	    mov     EDX,            [EBP+1456]
 0000222E  E8 00000000 E	    call    WriteString
 00002233  E8 00000000 E	    call    Crlf
 00002238  8B 95 000005B4	    mov     EDX,            [EBP+1460]
 0000223E  E8 00000000 E	    call    WriteString
 00002243  E8 00000000 E	    call    Crlf
				    ; N/A prompts

 00002248  5D			    pop     EBP
 00002249  C3			    ret
 0000224A			Story7a ENDP

 0000224A			Story7b PROC
 0000224A  55			    push    EBP
 0000224B  8B EC		    mov     EBP,            ESP


 0000224D  E8 00000000 E	    call    ClrScr
				    ; 6 ascii
 00002252  8B 95 000005B8	    mov     EDX,            [EBP+1464]
 00002258  E8 00000000 E	    call    WriteString
 0000225D  E8 00000000 E	    call    Crlf
 00002262  8B 95 000005BC	    mov     EDX,            [EBP+1468]
 00002268  E8 00000000 E	    call    WriteString
 0000226D  E8 00000000 E	    call    Crlf
 00002272  8B 95 000005C0	    mov     EDX,            [EBP+1472]
 00002278  E8 00000000 E	    call    WriteString
 0000227D  E8 00000000 E	    call    Crlf
 00002282  8B 95 000005C4	    mov     EDX,            [EBP+1476]
 00002288  E8 00000000 E	    call    WriteString
 0000228D  E8 00000000 E	    call    Crlf
 00002292  8B 95 000005C8	    mov     EDX,            [EBP+1480]
 00002298  E8 00000000 E	    call    WriteString
 0000229D  E8 00000000 E	    call    Crlf
 000022A2  8B 95 000005CC	    mov     EDX,            [EBP+1484]
 000022A8  E8 00000000 E	    call    WriteString
 000022AD  E8 00000000 E	    call    Crlf
				    ; 5 storylines
 000022B2  8B 95 000005D0	    mov     EDX,            [EBP+1488]
 000022B8  E8 00000000 E	    call    WriteString
 000022BD  E8 00000000 E	    call    Crlf
 000022C2  8B 95 000005D4	    mov     EDX,            [EBP+1492]
 000022C8  E8 00000000 E	    call    WriteString
 000022CD  E8 00000000 E	    call    Crlf
 000022D2  8B 95 000005D8	    mov     EDX,            [EBP+1496]
 000022D8  E8 00000000 E	    call    WriteString
 000022DD  E8 00000000 E	    call    Crlf
 000022E2  8B 95 000005DC	    mov     EDX,            [EBP+1500]
 000022E8  E8 00000000 E	    call    WriteString
 000022ED  E8 00000000 E	    call    Crlf
 000022F2  8B 95 000005E0	    mov     EDX,            [EBP+1504]
 000022F8  E8 00000000 E	    call    WriteString
 000022FD  E8 00000000 E	    call    Crlf
				    ; N/A prompts

 00002302  5D			    pop     EBP
 00002303  C3			    ret
 00002304			Story7b ENDP


 00002304			Goodbye PROC
 00002304  55			    push    EBP
 00002305  8B EC		    mov     EBP,            ESP

 00002307  E8 00000000 E	    call    Crlf
 0000230C  8B 55 08		    mov     EDX,            [EBP+8]
 0000230F  E8 00000000 E	    call    WriteString
 00002314  8B 55 0C		    mov     EDX,            [EBP+12]
 00002317  E8 00000000 E	    call    WriteString
 0000231C  E8 00000000 E	    call    Crlf

 00002321  5D			    pop     EBP

 00002322  C2 0008		    ret     8
 00002325			Goodbye ENDP

				END main

				;==============================================================================;
				;=-=END=-=-=-=-=-=-=-=-=-=-=-=-=-=-=-=-=-=-=-=-=-=-=-=-=-=-=-=-=-=-=-=-=-=-=-=-;
Microsoft (R) Macro Assembler Version 14.24.28316.0	    03/09/20 22:04:05
!FinalProject1 (FinalProject1.asm			     Symbols 2 - 1




Structures and Unions:

                N a m e                  Size
                                         Offset      Type

CONSOLE_CURSOR_INFO  . . . . . .	 00000008
  dwSize . . . . . . . . . . . .	 00000000	 DWord
  bVisible . . . . . . . . . . .	 00000004	 DWord
CONSOLE_SCREEN_BUFFER_INFO . . .	 00000016
  dwSize . . . . . . . . . . . .	 00000000	 DWord
  dwCursorPosition . . . . . . .	 00000004	 DWord
  wAttributes  . . . . . . . . .	 00000008	 Word
  srWindow . . . . . . . . . . .	 0000000A	 QWord
  dwMaximumWindowSize  . . . . .	 00000012	 DWord
COORD  . . . . . . . . . . . . .	 00000004
  X  . . . . . . . . . . . . . .	 00000000	 Word
  Y  . . . . . . . . . . . . . .	 00000002	 Word
FILETIME . . . . . . . . . . . .	 00000008
  loDateTime . . . . . . . . . .	 00000000	 DWord
  hiDateTime . . . . . . . . . .	 00000004	 DWord
FOCUS_EVENT_RECORD . . . . . . .	 00000004
  bSetFocus  . . . . . . . . . .	 00000000	 DWord
FPU_ENVIRON  . . . . . . . . . .	 0000001C
  controlWord  . . . . . . . . .	 00000000	 Word
  statusWord . . . . . . . . . .	 00000004	 Word
  tagWord  . . . . . . . . . . .	 00000008	 Word
  instrPointerOffset . . . . . .	 0000000C	 DWord
  instrPointerSelector . . . . .	 00000010	 DWord
  operandPointerOffset . . . . .	 00000014	 DWord
  operandPointerSelector . . . .	 00000018	 Word
INPUT_RECORD . . . . . . . . . .	 00000014
  EventType  . . . . . . . . . .	 00000000	 Word
  Event  . . . . . . . . . . . .	 00000004	 XmmWord
  bKeyDown . . . . . . . . . . .	 00000000	 DWord
  wRepeatCount . . . . . . . . .	 00000004	 Word
  wVirtualKeyCode  . . . . . . .	 00000006	 Word
  wVirtualScanCode . . . . . . .	 00000008	 Word
  uChar  . . . . . . . . . . . .	 0000000A	 Word
  UnicodeChar  . . . . . . . . .	 00000000	 Word
  AsciiChar  . . . . . . . . . .	 00000000	 Byte
  dwControlKeyState  . . . . . .	 0000000C	 DWord
  dwMousePosition  . . . . . . .	 00000000	 DWord
  dwButtonState  . . . . . . . .	 00000004	 DWord
  dwMouseControlKeyState . . . .	 00000008	 DWord
  dwEventFlags . . . . . . . . .	 0000000C	 DWord
  dwSize . . . . . . . . . . . .	 00000000	 DWord
  dwCommandId  . . . . . . . . .	 00000000	 DWord
  bSetFocus  . . . . . . . . . .	 00000000	 DWord
KEY_EVENT_RECORD . . . . . . . .	 00000010
  bKeyDown . . . . . . . . . . .	 00000000	 DWord
  wRepeatCount . . . . . . . . .	 00000004	 Word
  wVirtualKeyCode  . . . . . . .	 00000006	 Word
  wVirtualScanCode . . . . . . .	 00000008	 Word
  uChar  . . . . . . . . . . . .	 0000000A	 Word
  UnicodeChar  . . . . . . . . .	 00000000	 Word
  AsciiChar  . . . . . . . . . .	 00000000	 Byte
  dwControlKeyState  . . . . . .	 0000000C	 DWord
MENU_EVENT_RECORD  . . . . . . .	 00000004
  dwCommandId  . . . . . . . . .	 00000000	 DWord
MOUSE_EVENT_RECORD . . . . . . .	 00000010
  dwMousePosition  . . . . . . .	 00000000	 DWord
  dwButtonState  . . . . . . . .	 00000004	 DWord
  dwMouseControlKeyState . . . .	 00000008	 DWord
  dwEventFlags . . . . . . . . .	 0000000C	 DWord
SMALL_RECT . . . . . . . . . . .	 00000008
  Left . . . . . . . . . . . . .	 00000000	 Word
  Top  . . . . . . . . . . . . .	 00000002	 Word
  Right  . . . . . . . . . . . .	 00000004	 Word
  Bottom . . . . . . . . . . . .	 00000006	 Word
SYSTEMTIME . . . . . . . . . . .	 00000010
  wYear  . . . . . . . . . . . .	 00000000	 Word
  wMonth . . . . . . . . . . . .	 00000002	 Word
  wDayOfWeek . . . . . . . . . .	 00000004	 Word
  wDay . . . . . . . . . . . . .	 00000006	 Word
  wHour  . . . . . . . . . . . .	 00000008	 Word
  wMinute  . . . . . . . . . . .	 0000000A	 Word
  wSecond  . . . . . . . . . . .	 0000000C	 Word
  wMilliseconds  . . . . . . . .	 0000000E	 Word
WINDOW_BUFFER_SIZE_RECORD  . . .	 00000004
  dwSize . . . . . . . . . . . .	 00000000	 DWord


Segments and Groups:

                N a m e                 Size     Length   Align   Combine Class

FLAT . . . . . . . . . . . . . .	GROUP
STACK  . . . . . . . . . . . . .	32 Bit	 00001000 Para	  Stack	  'STACK'	 
_DATA  . . . . . . . . . . . . .	32 Bit	 00004483 Para	  Public  'DATA'	
_TEXT  . . . . . . . . . . . . .	32 Bit	 00002325 Para	  Public  'CODE'	


Procedures, parameters, and locals:

                N a m e                 Type     Value    Attr

CloseFile  . . . . . . . . . . .	P Near	 00000000 FLAT	Length= 00000000 External STDCALL
CloseHandle  . . . . . . . . . .	P Near	 00000000 FLAT	Length= 00000000 External STDCALL
Clrscr . . . . . . . . . . . . .	P Near	 00000000 FLAT	Length= 00000000 External STDCALL
CreateFileA  . . . . . . . . . .	P Near	 00000000 FLAT	Length= 00000000 External STDCALL
CreateOutputFile . . . . . . . .	P Near	 00000000 FLAT	Length= 00000000 External STDCALL
Crlf . . . . . . . . . . . . . .	P Near	 00000000 FLAT	Length= 00000000 External STDCALL
Delay  . . . . . . . . . . . . .	P Near	 00000000 FLAT	Length= 00000000 External STDCALL
DumpMem  . . . . . . . . . . . .	P Near	 00000000 FLAT	Length= 00000000 External STDCALL
DumpRegs . . . . . . . . . . . .	P Near	 00000000 FLAT	Length= 00000000 External STDCALL
ExitProcess  . . . . . . . . . .	P Near	 00000000 FLAT	Length= 00000000 External STDCALL
FileTimeToDosDateTime  . . . . .	P Near	 00000000 FLAT	Length= 00000000 External STDCALL
FileTimeToSystemTime . . . . . .	P Near	 00000000 FLAT	Length= 00000000 External STDCALL
FlushConsoleInputBuffer  . . . .	P Near	 00000000 FLAT	Length= 00000000 External STDCALL
FormatMessageA . . . . . . . . .	P Near	 00000000 FLAT	Length= 00000000 External STDCALL
GetCommandLineA  . . . . . . . .	P Near	 00000000 FLAT	Length= 00000000 External STDCALL
GetCommandTail . . . . . . . . .	P Near	 00000000 FLAT	Length= 00000000 External STDCALL
GetConsoleCP . . . . . . . . . .	P Near	 00000000 FLAT	Length= 00000000 External STDCALL
GetConsoleCursorInfo . . . . . .	P Near	 00000000 FLAT	Length= 00000000 External STDCALL
GetConsoleMode . . . . . . . . .	P Near	 00000000 FLAT	Length= 00000000 External STDCALL
GetConsoleScreenBufferInfo . . .	P Near	 00000000 FLAT	Length= 00000000 External STDCALL
GetDateTime  . . . . . . . . . .	P Near	 00000000 FLAT	Length= 00000000 External STDCALL
GetFileTime  . . . . . . . . . .	P Near	 00000000 FLAT	Length= 00000000 External STDCALL
GetKeyState  . . . . . . . . . .	P Near	 00000000 FLAT	Length= 00000000 External STDCALL
GetLastError . . . . . . . . . .	P Near	 00000000 FLAT	Length= 00000000 External STDCALL
GetLocalTime . . . . . . . . . .	P Near	 00000000 FLAT	Length= 00000000 External STDCALL
GetMaxXY . . . . . . . . . . . .	P Near	 00000000 FLAT	Length= 00000000 External STDCALL
GetMseconds  . . . . . . . . . .	P Near	 00000000 FLAT	Length= 00000000 External STDCALL
GetNumberOfConsoleInputEvents  .	P Near	 00000000 FLAT	Length= 00000000 External STDCALL
GetProcessHeap . . . . . . . . .	P Near	 00000000 FLAT	Length= 00000000 External STDCALL
GetStdHandle . . . . . . . . . .	P Near	 00000000 FLAT	Length= 00000000 External STDCALL
GetSystemTime  . . . . . . . . .	P Near	 00000000 FLAT	Length= 00000000 External STDCALL
GetTextColor . . . . . . . . . .	P Near	 00000000 FLAT	Length= 00000000 External STDCALL
GetTickCount . . . . . . . . . .	P Near	 00000000 FLAT	Length= 00000000 External STDCALL
Goodbye  . . . . . . . . . . . .	P Near	 00002304 _TEXT	Length= 00000021 Public STDCALL
Gotoxy . . . . . . . . . . . . .	P Near	 00000000 FLAT	Length= 00000000 External STDCALL
HeapAlloc  . . . . . . . . . . .	P Near	 00000000 FLAT	Length= 00000000 External STDCALL
HeapCreate . . . . . . . . . . .	P Near	 00000000 FLAT	Length= 00000000 External STDCALL
HeapDestroy  . . . . . . . . . .	P Near	 00000000 FLAT	Length= 00000000 External STDCALL
HeapFree . . . . . . . . . . . .	P Near	 00000000 FLAT	Length= 00000000 External STDCALL
HeapSize . . . . . . . . . . . .	P Near	 00000000 FLAT	Length= 00000000 External STDCALL
Introduction . . . . . . . . . .	P Near	 00000797 _TEXT	Length= 00000048 Public STDCALL
IsDigit  . . . . . . . . . . . .	P Near	 00000000 FLAT	Length= 00000000 External STDCALL
LocalFree  . . . . . . . . . . .	P Near	 00000000 FLAT	Length= 00000000 External STDCALL
MessageBoxA  . . . . . . . . . .	P Near	 00000000 FLAT	Length= 00000000 External STDCALL
MsgBoxAsk  . . . . . . . . . . .	P Near	 00000000 FLAT	Length= 00000000 External STDCALL
MsgBox . . . . . . . . . . . . .	P Near	 00000000 FLAT	Length= 00000000 External STDCALL
OpenInputFile  . . . . . . . . .	P Near	 00000000 FLAT	Length= 00000000 External STDCALL
ParseDecimal32 . . . . . . . . .	P Near	 00000000 FLAT	Length= 00000000 External STDCALL
ParseInteger32 . . . . . . . . .	P Near	 00000000 FLAT	Length= 00000000 External STDCALL
PeekConsoleInputA  . . . . . . .	P Near	 00000000 FLAT	Length= 00000000 External STDCALL
Random32 . . . . . . . . . . . .	P Near	 00000000 FLAT	Length= 00000000 External STDCALL
RandomRange  . . . . . . . . . .	P Near	 00000000 FLAT	Length= 00000000 External STDCALL
Randomize  . . . . . . . . . . .	P Near	 00000000 FLAT	Length= 00000000 External STDCALL
ReadChar . . . . . . . . . . . .	P Near	 00000000 FLAT	Length= 00000000 External STDCALL
ReadConsoleA . . . . . . . . . .	P Near	 00000000 FLAT	Length= 00000000 External STDCALL
ReadConsoleInputA  . . . . . . .	P Near	 00000000 FLAT	Length= 00000000 External STDCALL
ReadDec  . . . . . . . . . . . .	P Near	 00000000 FLAT	Length= 00000000 External STDCALL
ReadFile . . . . . . . . . . . .	P Near	 00000000 FLAT	Length= 00000000 External STDCALL
ReadFloat  . . . . . . . . . . .	P Near	 00000000 FLAT	Length= 00000000 External STDCALL
ReadFromFile . . . . . . . . . .	P Near	 00000000 FLAT	Length= 00000000 External STDCALL
ReadHex  . . . . . . . . . . . .	P Near	 00000000 FLAT	Length= 00000000 External STDCALL
ReadInt  . . . . . . . . . . . .	P Near	 00000000 FLAT	Length= 00000000 External STDCALL
ReadKeyFlush . . . . . . . . . .	P Near	 00000000 FLAT	Length= 00000000 External STDCALL
ReadKey  . . . . . . . . . . . .	P Near	 00000000 FLAT	Length= 00000000 External STDCALL
ReadString . . . . . . . . . . .	P Near	 00000000 FLAT	Length= 00000000 External STDCALL
SetConsoleCursorInfo . . . . . .	P Near	 00000000 FLAT	Length= 00000000 External STDCALL
SetConsoleCursorPosition . . . .	P Near	 00000000 FLAT	Length= 00000000 External STDCALL
SetConsoleMode . . . . . . . . .	P Near	 00000000 FLAT	Length= 00000000 External STDCALL
SetConsoleScreenBufferSize . . .	P Near	 00000000 FLAT	Length= 00000000 External STDCALL
SetConsoleTextAttribute  . . . .	P Near	 00000000 FLAT	Length= 00000000 External STDCALL
SetConsoleTitleA . . . . . . . .	P Near	 00000000 FLAT	Length= 00000000 External STDCALL
SetConsoleWindowInfo . . . . . .	P Near	 00000000 FLAT	Length= 00000000 External STDCALL
SetFilePointer . . . . . . . . .	P Near	 00000000 FLAT	Length= 00000000 External STDCALL
SetLocalTime . . . . . . . . . .	P Near	 00000000 FLAT	Length= 00000000 External STDCALL
SetTextColor . . . . . . . . . .	P Near	 00000000 FLAT	Length= 00000000 External STDCALL
ShowFPUStack . . . . . . . . . .	P Near	 00000000 FLAT	Length= 00000000 External STDCALL
Sleep  . . . . . . . . . . . . .	P Near	 00000000 FLAT	Length= 00000000 External STDCALL
Story2a  . . . . . . . . . . . .	P Near	 000008F8 _TEXT	Length= 000000E5 Public STDCALL
  Input  . . . . . . . . . . . .	L Near	 0000099C _TEXT	
  LeaveFunc  . . . . . . . . . .	L Near	 000009BA _TEXT	
  IncorrectInput . . . . . . . .	L Near	 000009BB _TEXT	
  L3a  . . . . . . . . . . . . .	L Near	 000009CD _TEXT	
  L3b  . . . . . . . . . . . . .	L Near	 000009D5 _TEXT	
Story2b  . . . . . . . . . . . .	P Near	 000009DD _TEXT	Length= 00000171 Public STDCALL
  Input  . . . . . . . . . . . .	L Near	 00000B12 _TEXT	
  LeaveFunc  . . . . . . . . . .	L Near	 00000B2B _TEXT	
  IncorrectInput . . . . . . . .	L Near	 00000B2C _TEXT	
  L3c  . . . . . . . . . . . . .	L Near	 00000B3E _TEXT	
  L3d  . . . . . . . . . . . . .	L Near	 00000B46 _TEXT	
Story3a  . . . . . . . . . . . .	P Near	 00000B4E _TEXT	Length= 00000124 Public STDCALL
  Input  . . . . . . . . . . . .	L Near	 00000C36 _TEXT	
  LeaveFunc  . . . . . . . . . .	L Near	 00000C4F _TEXT	
  IncorrectInput . . . . . . . .	L Near	 00000C50 _TEXT	
  L4c  . . . . . . . . . . . . .	L Near	 00000C62 _TEXT	
  L4a  . . . . . . . . . . . . .	L Near	 00000C6A _TEXT	
Story3b  . . . . . . . . . . . .	P Near	 00000C72 _TEXT	Length= 00000144 Public STDCALL
  Input  . . . . . . . . . . . .	L Near	 00000D7A _TEXT	
  LeaveFunc  . . . . . . . . . .	L Near	 00000D93 _TEXT	
  IncorrectInput . . . . . . . .	L Near	 00000D94 _TEXT	
  L4b  . . . . . . . . . . . . .	L Near	 00000DA6 _TEXT	
  L4c  . . . . . . . . . . . . .	L Near	 00000DAE _TEXT	
Story3c  . . . . . . . . . . . .	P Near	 00000DB6 _TEXT	Length= 000001A4 Public STDCALL
  Input  . . . . . . . . . . . .	L Near	 00000F1E _TEXT	
  LeaveFunc  . . . . . . . . . .	L Near	 00000F37 _TEXT	
  IncorrectInput . . . . . . . .	L Near	 00000F38 _TEXT	
  L4d  . . . . . . . . . . . . .	L Near	 00000F4A _TEXT	
  L4e  . . . . . . . . . . . . .	L Near	 00000F52 _TEXT	
Story3d  . . . . . . . . . . . .	P Near	 00000F5A _TEXT	Length= 00000174 Public STDCALL
  Input  . . . . . . . . . . . .	L Near	 00001092 _TEXT	
  LeaveFunc  . . . . . . . . . .	L Near	 000010AB _TEXT	
  IncorrectInput . . . . . . . .	L Near	 000010AC _TEXT	
  L4d  . . . . . . . . . . . . .	L Near	 000010BE _TEXT	
  L4e  . . . . . . . . . . . . .	L Near	 000010C6 _TEXT	
Story4a  . . . . . . . . . . . .	P Near	 000010CE _TEXT	Length= 000001B4 Public STDCALL
  Input  . . . . . . . . . . . .	L Near	 00001246 _TEXT	
  LeaveFunc  . . . . . . . . . .	L Near	 0000125F _TEXT	
  IncorrectInput . . . . . . . .	L Near	 00001260 _TEXT	
  L5c  . . . . . . . . . . . . .	L Near	 00001272 _TEXT	
  L5e  . . . . . . . . . . . . .	L Near	 0000127A _TEXT	
Story4b  . . . . . . . . . . . .	P Near	 00001282 _TEXT	Length= 00000114 Public STDCALL
  Input  . . . . . . . . . . . .	L Near	 0000135A _TEXT	
  LeaveFunc  . . . . . . . . . .	L Near	 00001373 _TEXT	
  IncorrectInput . . . . . . . .	L Near	 00001374 _TEXT	
  L5a  . . . . . . . . . . . . .	L Near	 00001386 _TEXT	
  L5b  . . . . . . . . . . . . .	L Near	 0000138E _TEXT	
Story4c  . . . . . . . . . . . .	P Near	 00001396 _TEXT	Length= 00000194 Public STDCALL
  Input  . . . . . . . . . . . .	L Near	 000014EE _TEXT	
  LeaveFunc  . . . . . . . . . .	L Near	 00001507 _TEXT	
  IncorrectInput . . . . . . . .	L Near	 00001508 _TEXT	
  L5c  . . . . . . . . . . . . .	L Near	 0000151A _TEXT	
  L5e  . . . . . . . . . . . . .	L Near	 00001522 _TEXT	
Story4d  . . . . . . . . . . . .	P Near	 0000152A _TEXT	Length= 00000194 Public STDCALL
  Input  . . . . . . . . . . . .	L Near	 00001682 _TEXT	
  LeaveFunc  . . . . . . . . . .	L Near	 0000169B _TEXT	
  IncorrectInput . . . . . . . .	L Near	 0000169C _TEXT	
  L5c  . . . . . . . . . . . . .	L Near	 000016AE _TEXT	
  L5f  . . . . . . . . . . . . .	L Near	 000016B6 _TEXT	
Story4e  . . . . . . . . . . . .	P Near	 000016BE _TEXT	Length= 000000E4 Public STDCALL
  Input  . . . . . . . . . . . .	L Near	 00001766 _TEXT	
  LeaveFunc  . . . . . . . . . .	L Near	 0000177F _TEXT	
  IncorrectInput . . . . . . . .	L Near	 00001780 _TEXT	
  L5g  . . . . . . . . . . . . .	L Near	 00001792 _TEXT	
  L5h  . . . . . . . . . . . . .	L Near	 0000179A _TEXT	
Story5a  . . . . . . . . . . . .	P Near	 000017A2 _TEXT	Length= 0000005A Public STDCALL
Story5b  . . . . . . . . . . . .	P Near	 000017FC _TEXT	Length= 00000234 Public STDCALL
  Input  . . . . . . . . . . . .	L Near	 000019F4 _TEXT	
  LeaveFunc  . . . . . . . . . .	L Near	 00001A0D _TEXT	
  IncorrectInput . . . . . . . .	L Near	 00001A0E _TEXT	
  L7a  . . . . . . . . . . . . .	L Near	 00001A20 _TEXT	
  L7b  . . . . . . . . . . . . .	L Near	 00001A28 _TEXT	
Story5c  . . . . . . . . . . . .	P Near	 00001A30 _TEXT	Length= 000001A4 Public STDCALL
  Input  . . . . . . . . . . . .	L Near	 00001B98 _TEXT	
  LeaveFunc  . . . . . . . . . .	L Near	 00001BB1 _TEXT	
  IncorrectInput . . . . . . . .	L Near	 00001BB2 _TEXT	
  L6a  . . . . . . . . . . . . .	L Near	 00001BC4 _TEXT	
  L6b  . . . . . . . . . . . . .	L Near	 00001BCC _TEXT	
Story5e  . . . . . . . . . . . .	P Near	 00001BD4 _TEXT	Length= 0000012A Public STDCALL
Story5f  . . . . . . . . . . . .	P Near	 00001CFE _TEXT	Length= 0000009A Public STDCALL
Story5g  . . . . . . . . . . . .	P Near	 00001D98 _TEXT	Length= 0000010A Public STDCALL
Story5h  . . . . . . . . . . . .	P Near	 00001EA2 _TEXT	Length= 0000005A Public STDCALL
Story6a  . . . . . . . . . . . .	P Near	 00001EFC _TEXT	Length= 0000012A Public STDCALL
Story6b  . . . . . . . . . . . .	P Near	 00002026 _TEXT	Length= 0000015A Public STDCALL
Story7a  . . . . . . . . . . . .	P Near	 00002180 _TEXT	Length= 000000CA Public STDCALL
Story7b  . . . . . . . . . . . .	P Near	 0000224A _TEXT	Length= 000000BA Public STDCALL
StoryOrigin  . . . . . . . . . .	P Near	 000007DF _TEXT	Length= 00000119 Public STDCALL
  Input  . . . . . . . . . . . .	L Near	 000007E2 _TEXT	
  LeaveGame  . . . . . . . . . .	L Near	 000008D0 _TEXT	
  IncorrectInput . . . . . . . .	L Near	 000008D3 _TEXT	
  L2a  . . . . . . . . . . . . .	L Near	 000008E8 _TEXT	
  L2b  . . . . . . . . . . . . .	L Near	 000008F0 _TEXT	
StrLength  . . . . . . . . . . .	P Near	 00000000 FLAT	Length= 00000000 External STDCALL
Str_compare  . . . . . . . . . .	P Near	 00000000 FLAT	Length= 00000000 External STDCALL
Str_copy . . . . . . . . . . . .	P Near	 00000000 FLAT	Length= 00000000 External STDCALL
Str_length . . . . . . . . . . .	P Near	 00000000 FLAT	Length= 00000000 External STDCALL
Str_trim . . . . . . . . . . . .	P Near	 00000000 FLAT	Length= 00000000 External STDCALL
Str_ucase  . . . . . . . . . . .	P Near	 00000000 FLAT	Length= 00000000 External STDCALL
SystemTimeToFileTime . . . . . .	P Near	 00000000 FLAT	Length= 00000000 External STDCALL
WaitMsg  . . . . . . . . . . . .	P Near	 00000000 FLAT	Length= 00000000 External STDCALL
WriteBinB  . . . . . . . . . . .	P Near	 00000000 FLAT	Length= 00000000 External STDCALL
WriteBin . . . . . . . . . . . .	P Near	 00000000 FLAT	Length= 00000000 External STDCALL
WriteChar  . . . . . . . . . . .	P Near	 00000000 FLAT	Length= 00000000 External STDCALL
WriteConsoleA  . . . . . . . . .	P Near	 00000000 FLAT	Length= 00000000 External STDCALL
WriteConsoleOutputAttribute  . .	P Near	 00000000 FLAT	Length= 00000000 External STDCALL
WriteConsoleOutputCharacterA . .	P Near	 00000000 FLAT	Length= 00000000 External STDCALL
WriteDec . . . . . . . . . . . .	P Near	 00000000 FLAT	Length= 00000000 External STDCALL
WriteFile  . . . . . . . . . . .	P Near	 00000000 FLAT	Length= 00000000 External STDCALL
WriteFloat . . . . . . . . . . .	P Near	 00000000 FLAT	Length= 00000000 External STDCALL
WriteHexB  . . . . . . . . . . .	P Near	 00000000 FLAT	Length= 00000000 External STDCALL
WriteHex . . . . . . . . . . . .	P Near	 00000000 FLAT	Length= 00000000 External STDCALL
WriteInt . . . . . . . . . . . .	P Near	 00000000 FLAT	Length= 00000000 External STDCALL
WriteStackFrameName  . . . . . .	P Near	 00000000 FLAT	Length= 00000000 External STDCALL
WriteStackFrame  . . . . . . . .	P Near	 00000000 FLAT	Length= 00000000 External STDCALL
WriteString  . . . . . . . . . .	P Near	 00000000 FLAT	Length= 00000000 External STDCALL
WriteToFile  . . . . . . . . . .	P Near	 00000000 FLAT	Length= 00000000 External STDCALL
WriteWindowsMsg  . . . . . . . .	P Near	 00000000 FLAT	Length= 00000000 External STDCALL
main . . . . . . . . . . . . . .	P Near	 00000000 _TEXT	Length= 00000797 Public STDCALL
printf . . . . . . . . . . . . .	P Near	 00000000 FLAT	Length= 00000000 External C
scanf  . . . . . . . . . . . . .	P Near	 00000000 FLAT	Length= 00000000 External C
wsprintfA  . . . . . . . . . . .	P Near	 00000000 FLAT	Length= 00000000 External C


Symbols:

                N a m e                 Type     Value    Attr

@CodeSize  . . . . . . . . . . .	Number	 00000000h   
@DataSize  . . . . . . . . . . .	Number	 00000000h   
@Interface . . . . . . . . . . .	Number	 00000003h   
@Model . . . . . . . . . . . . .	Number	 00000007h   
@code  . . . . . . . . . . . . .	Text   	 _TEXT
@data  . . . . . . . . . . . . .	Text   	 FLAT
@fardata?  . . . . . . . . . . .	Text   	 FLAT
@fardata . . . . . . . . . . . .	Text   	 FLAT
@stack . . . . . . . . . . . . .	Text   	 FLAT
ALT_MASK . . . . . . . . . . . .	Number	 00000003h   
CAPSLOCK_ON  . . . . . . . . . .	Number	 00000080h   
CREATE_ALWAYS  . . . . . . . . .	Number	 00000002h   
CREATE_NEW . . . . . . . . . . .	Number	 00000001h   
CTRL_MASK  . . . . . . . . . . .	Number	 0000000Ch   
CreateFile . . . . . . . . . . .	Text   	 CreateFileA
DO_NOT_SHARE . . . . . . . . . .	Number	 00000000h   
ENABLE_ECHO_INPUT  . . . . . . .	Number	 00000004h   
ENABLE_LINE_INPUT  . . . . . . .	Number	 00000002h   
ENABLE_MOUSE_INPUT . . . . . . .	Number	 00000010h   
ENABLE_PROCESSED_INPUT . . . . .	Number	 00000001h   
ENABLE_PROCESSED_OUTPUT  . . . .	Number	 00000001h   
ENABLE_WINDOW_INPUT  . . . . . .	Number	 00000008h   
ENABLE_WRAP_AT_EOL_OUTPUT  . . .	Number	 00000002h   
ENHANCED_KEY . . . . . . . . . .	Number	 00000100h   
FALSE  . . . . . . . . . . . . .	Number	 00000000h   
FILE_APPEND_DATA . . . . . . . .	Number	 00000004h   
FILE_ATTRIBUTE_ARCHIVE . . . . .	Number	 00000020h   
FILE_ATTRIBUTE_COMPRESSED  . . .	Number	 00000800h   
FILE_ATTRIBUTE_DEVICE  . . . . .	Number	 00000040h   
FILE_ATTRIBUTE_DIRECTORY . . . .	Number	 00000010h   
FILE_ATTRIBUTE_ENCRYPTED . . . .	Number	 00004000h   
FILE_ATTRIBUTE_HIDDEN  . . . . .	Number	 00000002h   
FILE_ATTRIBUTE_NORMAL  . . . . .	Number	 00000080h   
FILE_ATTRIBUTE_NOT_CONTENT_INDEXED .	Number	 00002000h   
FILE_ATTRIBUTE_OFFLINE . . . . .	Number	 00001000h   
FILE_ATTRIBUTE_READONLY  . . . .	Number	 00000001h   
FILE_ATTRIBUTE_REPARSE_POINT . .	Number	 00000400h   
FILE_ATTRIBUTE_SPARSE_FILE . . .	Number	 00000200h   
FILE_ATTRIBUTE_SYSTEM  . . . . .	Number	 00000004h   
FILE_ATTRIBUTE_TEMPORARY . . . .	Number	 00000100h   
FILE_BEGIN . . . . . . . . . . .	Number	 00000000h   
FILE_CURRENT . . . . . . . . . .	Number	 00000001h   
FILE_DELETE_CHILD  . . . . . . .	Number	 00000040h   
FILE_END . . . . . . . . . . . .	Number	 00000002h   
FILE_READ_DATA . . . . . . . . .	Number	 00000001h   
FILE_SHARE_DELETE  . . . . . . .	Number	 00000004h   
FILE_SHARE_READ  . . . . . . . .	Number	 00000001h   
FILE_SHARE_WRITE . . . . . . . .	Number	 00000002h   
FILE_WRITE_DATA  . . . . . . . .	Number	 00000002h   
FOCUS_EVENT  . . . . . . . . . .	Number	 00000010h   
FORMAT_MESSAGE_ALLOCATE_BUFFER .	Number	 00000100h   
FORMAT_MESSAGE_FROM_SYSTEM . . .	Number	 00001000h   
FormatMessage  . . . . . . . . .	Text   	 FormatMessageA
GENERIC_ALL  . . . . . . . . . .	Number	 10000000h   
GENERIC_EXECUTE  . . . . . . . .	Number	 20000000h   
GENERIC_READ . . . . . . . . . .	Number	 -80000000h   
GENERIC_WRITE  . . . . . . . . .	Number	 40000000h   
GetCommandLine . . . . . . . . .	Text   	 GetCommandLineA
HANDLE . . . . . . . . . . . . .	Text   	 DWORD
HEAP_GENERATE_EXCEPTIONS . . . .	Number	 00000004h   
HEAP_GROWABLE  . . . . . . . . .	Number	 00000002h   
HEAP_NO_SERIALIZE  . . . . . . .	Number	 00000001h   
HEAP_REALLOC_IN_PLACE_ONLY . . .	Number	 00000010h   
HEAP_ZERO_MEMORY . . . . . . . .	Number	 00000008h   
IDABORT  . . . . . . . . . . . .	Number	 00000003h   
IDCANCEL . . . . . . . . . . . .	Number	 00000002h   
IDCLOSE  . . . . . . . . . . . .	Number	 00000008h   
IDCONTINUE . . . . . . . . . . .	Number	 0000000Bh   
IDHELP . . . . . . . . . . . . .	Number	 00000009h   
IDIGNORE . . . . . . . . . . . .	Number	 00000005h   
IDNO . . . . . . . . . . . . . .	Number	 00000007h   
IDOK . . . . . . . . . . . . . .	Number	 00000001h   
IDRETRY  . . . . . . . . . . . .	Number	 00000004h   
IDTIMEOUT  . . . . . . . . . . .	Number	 00007D00h   
IDTRYAGAIN . . . . . . . . . . .	Number	 0000000Ah   
IDYES  . . . . . . . . . . . . .	Number	 00000006h   
INVALID_HANDLE_VALUE . . . . . .	Number	 -00000001h   
KBDOWN_FLAG  . . . . . . . . . .	Number	 00000001h   
KEY_EVENT  . . . . . . . . . . .	Number	 00000001h   
KEY_MASKS  . . . . . . . . . . .	Number	 0000001Fh   
LEFT_ALT_PRESSED . . . . . . . .	Number	 00000002h   
LEFT_CTRL_PRESSED  . . . . . . .	Number	 00000008h   
MAX  . . . . . . . . . . . . . .	Number	 00000002h   
MB_ABORTRETRYIGNORE  . . . . . .	Number	 00000002h   
MB_APPLMODAL . . . . . . . . . .	Number	 00000000h   
MB_CANCELTRYCONTINUE . . . . . .	Number	 00000006h   
MB_DEFBUTTON1  . . . . . . . . .	Number	 00000000h   
MB_DEFBUTTON2  . . . . . . . . .	Number	 00000100h   
MB_DEFBUTTON3  . . . . . . . . .	Number	 00000200h   
MB_DEFBUTTON4  . . . . . . . . .	Number	 00000300h   
MB_HELP  . . . . . . . . . . . .	Number	 00004000h   
MB_ICONASTERISK  . . . . . . . .	Number	 00000040h   
MB_ICONERROR . . . . . . . . . .	Number	 00000010h   
MB_ICONEXCLAMATION . . . . . . .	Number	 00000030h   
MB_ICONHAND  . . . . . . . . . .	Number	 00000010h   
MB_ICONINFORMATION . . . . . . .	Number	 00000040h   
MB_ICONQUESTION  . . . . . . . .	Number	 00000020h   
MB_ICONSTOP  . . . . . . . . . .	Number	 00000010h   
MB_ICONWARNING . . . . . . . . .	Number	 00000030h   
MB_OKCANCEL  . . . . . . . . . .	Number	 00000001h   
MB_OK  . . . . . . . . . . . . .	Number	 00000000h   
MB_RETRYCANCEL . . . . . . . . .	Number	 00000005h   
MB_SYSTEMMODAL . . . . . . . . .	Number	 00001000h   
MB_TASKMODAL . . . . . . . . . .	Number	 00002000h   
MB_USERICON  . . . . . . . . . .	Number	 00000080h   
MB_YESNOCANCEL . . . . . . . . .	Number	 00000003h   
MB_YESNO . . . . . . . . . . . .	Number	 00000004h   
MENU_EVENT . . . . . . . . . . .	Number	 00000008h   
MIN  . . . . . . . . . . . . . .	Number	 00000001h   
MOUSE_EVENT  . . . . . . . . . .	Number	 00000002h   
MessageBox . . . . . . . . . . .	Text   	 MessageBoxA
NULL . . . . . . . . . . . . . .	Number	 00000000h   
NUMLOCK_ON . . . . . . . . . . .	Number	 00000020h   
OPEN_ALWAYS  . . . . . . . . . .	Number	 00000004h   
OPEN_EXISTING  . . . . . . . . .	Number	 00000003h   
PeekConsoleInput . . . . . . . .	Text   	 PeekConsoleInputA
RIGHT_ALT_PRESSED  . . . . . . .	Number	 00000001h   
RIGHT_CTRL_PRESSED . . . . . . .	Number	 00000004h   
ReadConsoleInput . . . . . . . .	Text   	 ReadConsoleInputA
ReadConsole  . . . . . . . . . .	Text   	 ReadConsoleA
SCROLLLOCK_ON  . . . . . . . . .	Number	 00000040h   
SHIFT_MASK . . . . . . . . . . .	Number	 00000010h   
SHIFT_PRESSED  . . . . . . . . .	Number	 00000010h   
STD_ERROR_HANDLE . . . . . . . .	Number	 -0000000Ch   
STD_INPUT_HANDLE . . . . . . . .	Number	 -0000000Ah   
STD_OUTPUT_HANDLE  . . . . . . .	Number	 -0000000Bh   
SetConsoleTitle  . . . . . . . .	Text   	 SetConsoleTitleA
TAB  . . . . . . . . . . . . . .	Number	 00000009h   
TRUE . . . . . . . . . . . . . .	Number	 00000001h   
TRUNCATE_EXISTING  . . . . . . .	Number	 00000005h   
VK_11  . . . . . . . . . . . . .	Number	 000000BDh   
VK_12  . . . . . . . . . . . . .	Number	 000000BBh   
VK_ADD . . . . . . . . . . . . .	Number	 0000006Bh   
VK_BACK  . . . . . . . . . . . .	Number	 00000008h   
VK_CANCEL  . . . . . . . . . . .	Number	 00000003h   
VK_CAPITAL . . . . . . . . . . .	Number	 00000014h   
VK_CLEAR . . . . . . . . . . . .	Number	 0000000Ch   
VK_CONTROL . . . . . . . . . . .	Number	 00000011h   
VK_DECIMAL . . . . . . . . . . .	Number	 0000006Eh   
VK_DELETE  . . . . . . . . . . .	Number	 0000002Eh   
VK_DIVIDE  . . . . . . . . . . .	Number	 0000006Fh   
VK_DOWN  . . . . . . . . . . . .	Number	 00000028h   
VK_END . . . . . . . . . . . . .	Number	 00000023h   
VK_ESCAPE  . . . . . . . . . . .	Number	 0000001Bh   
VK_EXECUTE . . . . . . . . . . .	Number	 0000002Bh   
VK_F10 . . . . . . . . . . . . .	Number	 00000079h   
VK_F11 . . . . . . . . . . . . .	Number	 0000007Ah   
VK_F12 . . . . . . . . . . . . .	Number	 0000007Bh   
VK_F13 . . . . . . . . . . . . .	Number	 0000007Ch   
VK_F14 . . . . . . . . . . . . .	Number	 0000007Dh   
VK_F15 . . . . . . . . . . . . .	Number	 0000007Eh   
VK_F16 . . . . . . . . . . . . .	Number	 0000007Fh   
VK_F17 . . . . . . . . . . . . .	Number	 00000080h   
VK_F18 . . . . . . . . . . . . .	Number	 00000081h   
VK_F19 . . . . . . . . . . . . .	Number	 00000082h   
VK_F1  . . . . . . . . . . . . .	Number	 00000070h   
VK_F20 . . . . . . . . . . . . .	Number	 00000083h   
VK_F21 . . . . . . . . . . . . .	Number	 00000084h   
VK_F22 . . . . . . . . . . . . .	Number	 00000085h   
VK_F23 . . . . . . . . . . . . .	Number	 00000086h   
VK_F24 . . . . . . . . . . . . .	Number	 00000087h   
VK_F2  . . . . . . . . . . . . .	Number	 00000071h   
VK_F3  . . . . . . . . . . . . .	Number	 00000072h   
VK_F4  . . . . . . . . . . . . .	Number	 00000073h   
VK_F5  . . . . . . . . . . . . .	Number	 00000074h   
VK_F6  . . . . . . . . . . . . .	Number	 00000075h   
VK_F7  . . . . . . . . . . . . .	Number	 00000076h   
VK_F8  . . . . . . . . . . . . .	Number	 00000077h   
VK_F9  . . . . . . . . . . . . .	Number	 00000078h   
VK_HELP  . . . . . . . . . . . .	Number	 0000002Fh   
VK_HOME  . . . . . . . . . . . .	Number	 00000024h   
VK_INSERT  . . . . . . . . . . .	Number	 0000002Dh   
VK_LBUTTON . . . . . . . . . . .	Number	 00000001h   
VK_LCONTROL  . . . . . . . . . .	Number	 000000A2h   
VK_LEFT  . . . . . . . . . . . .	Number	 00000025h   
VK_LMENU . . . . . . . . . . . .	Number	 000000A4h   
VK_LSHIFT  . . . . . . . . . . .	Number	 000000A0h   
VK_MENU  . . . . . . . . . . . .	Number	 00000012h   
VK_MULTIPLY  . . . . . . . . . .	Number	 0000006Ah   
VK_NEXT  . . . . . . . . . . . .	Number	 00000022h   
VK_NUMLOCK . . . . . . . . . . .	Number	 00000090h   
VK_NUMPAD0 . . . . . . . . . . .	Number	 00000060h   
VK_NUMPAD1 . . . . . . . . . . .	Number	 00000061h   
VK_NUMPAD2 . . . . . . . . . . .	Number	 00000062h   
VK_NUMPAD3 . . . . . . . . . . .	Number	 00000063h   
VK_NUMPAD4 . . . . . . . . . . .	Number	 00000064h   
VK_NUMPAD5 . . . . . . . . . . .	Number	 00000065h   
VK_NUMPAD6 . . . . . . . . . . .	Number	 00000066h   
VK_NUMPAD7 . . . . . . . . . . .	Number	 00000067h   
VK_NUMPAD8 . . . . . . . . . . .	Number	 00000068h   
VK_NUMPAD9 . . . . . . . . . . .	Number	 00000069h   
VK_PAUSE . . . . . . . . . . . .	Number	 00000013h   
VK_PRINT . . . . . . . . . . . .	Number	 0000002Ah   
VK_PRIOR . . . . . . . . . . . .	Number	 00000021h   
VK_RBUTTON . . . . . . . . . . .	Number	 00000002h   
VK_RCONTROL  . . . . . . . . . .	Number	 000000A3h   
VK_RETURN  . . . . . . . . . . .	Number	 0000000Dh   
VK_RIGHT . . . . . . . . . . . .	Number	 00000027h   
VK_RMENU . . . . . . . . . . . .	Number	 000000A5h   
VK_RSHIFT  . . . . . . . . . . .	Number	 000000A1h   
VK_SCROLL  . . . . . . . . . . .	Number	 00000091h   
VK_SEPARATER . . . . . . . . . .	Number	 0000006Ch   
VK_SHIFT . . . . . . . . . . . .	Number	 00000010h   
VK_SNAPSHOT  . . . . . . . . . .	Number	 0000002Ch   
VK_SPACE . . . . . . . . . . . .	Number	 00000020h   
VK_SUBTRACT  . . . . . . . . . .	Number	 0000006Dh   
VK_TAB . . . . . . . . . . . . .	Number	 00000009h   
VK_UP  . . . . . . . . . . . . .	Number	 00000026h   
WINDOW_BUFFER_SIZE_EVENT . . . .	Number	 00000004h   
WriteConsoleOutputCharacter  . .	Text   	 WriteConsoleOutputCharacterA
WriteConsole . . . . . . . . . .	Text   	 WriteConsoleA
black  . . . . . . . . . . . . .	Number	 00000000h   
blue . . . . . . . . . . . . . .	Number	 00000001h   
brown  . . . . . . . . . . . . .	Number	 00000006h   
cyan . . . . . . . . . . . . . .	Number	 00000003h   
dBalance . . . . . . . . . . . .	DWord	 0000447B _DATA	
dNameL . . . . . . . . . . . . .	DWord	 0000447F _DATA	
exit . . . . . . . . . . . . . .	Text   	 INVOKE ExitProcess,0
gray . . . . . . . . . . . . . .	Number	 00000008h   
green  . . . . . . . . . . . . .	Number	 00000002h   
lightBlue  . . . . . . . . . . .	Number	 00000009h   
lightCyan  . . . . . . . . . . .	Number	 0000000Bh   
lightGray  . . . . . . . . . . .	Number	 00000007h   
lightGreen . . . . . . . . . . .	Number	 0000000Ah   
lightMagenta . . . . . . . . . .	Number	 0000000Dh   
lightRed . . . . . . . . . . . .	Number	 0000000Ch   
magenta  . . . . . . . . . . . .	Number	 00000005h   
red  . . . . . . . . . . . . . .	Number	 00000004h   
sAscii1a . . . . . . . . . . . .	Byte	 000000A7 _DATA	
sAscii1b . . . . . . . . . . . .	Byte	 000000CD _DATA	
sAscii1c . . . . . . . . . . . .	Byte	 000000F3 _DATA	
sAscii1d . . . . . . . . . . . .	Byte	 0000011A _DATA	
sAscii1e . . . . . . . . . . . .	Byte	 00000141 _DATA	
sAscii2aa  . . . . . . . . . . .	Byte	 00000508 _DATA	
sAscii2ab  . . . . . . . . . . .	Byte	 00000538 _DATA	
sAscii2ac  . . . . . . . . . . .	Byte	 00000568 _DATA	
sAscii2ad  . . . . . . . . . . .	Byte	 0000059E _DATA	
sAscii2ae  . . . . . . . . . . .	Byte	 000005D5 _DATA	
sAscii2ba  . . . . . . . . . . .	Byte	 000008C4 _DATA	
sAscii2bb  . . . . . . . . . . .	Byte	 000008E0 _DATA	
sAscii2bc  . . . . . . . . . . .	Byte	 0000091F _DATA	
sAscii2bd  . . . . . . . . . . .	Byte	 0000095E _DATA	
sAscii2be  . . . . . . . . . . .	Byte	 0000099E _DATA	
sAscii2bf  . . . . . . . . . . .	Byte	 000009DF _DATA	
sAscii3aa  . . . . . . . . . . .	Byte	 00000EB3 _DATA	
sAscii3ab  . . . . . . . . . . .	Byte	 00000ECC _DATA	
sAscii3ac  . . . . . . . . . . .	Byte	 00000EE8 _DATA	
sAscii3ad  . . . . . . . . . . .	Byte	 00000F06 _DATA	
sAscii3ca  . . . . . . . . . . .	Byte	 000015EE _DATA	
sAscii3cb  . . . . . . . . . . .	Byte	 000015FF _DATA	
sAscii3cc  . . . . . . . . . . .	Byte	 0000160F _DATA	
sAscii3cd  . . . . . . . . . . .	Byte	 00001622 _DATA	
sAscii3ce  . . . . . . . . . . .	Byte	 00001635 _DATA	
sAscii3cf  . . . . . . . . . . .	Byte	 00001648 _DATA	
sAscii3cg  . . . . . . . . . . .	Byte	 0000165B _DATA	
sAscii3ch  . . . . . . . . . . .	Byte	 0000166E _DATA	
sAscii3ci  . . . . . . . . . . .	Byte	 00001681 _DATA	
sAscii3cj  . . . . . . . . . . .	Byte	 00001694 _DATA	
sAscii3ck  . . . . . . . . . . .	Byte	 000016A7 _DATA	
sAscii3da  . . . . . . . . . . .	Byte	 00001960 _DATA	
sAscii3db  . . . . . . . . . . .	Byte	 00001976 _DATA	
sAscii3dc  . . . . . . . . . . .	Byte	 0000198C _DATA	
sAscii3dd  . . . . . . . . . . .	Byte	 000019A2 _DATA	
sAscii3de  . . . . . . . . . . .	Byte	 000019B8 _DATA	
sAscii3df  . . . . . . . . . . .	Byte	 000019CE _DATA	
sAscii3dg  . . . . . . . . . . .	Byte	 000019E4 _DATA	
sAscii3dh  . . . . . . . . . . .	Byte	 000019FA _DATA	
sAscii3di  . . . . . . . . . . .	Byte	 00001A10 _DATA	
sAscii3dj  . . . . . . . . . . .	Byte	 00001A26 _DATA	
sAscii3dk  . . . . . . . . . . .	Byte	 00001A3C _DATA	
sAscii3dl  . . . . . . . . . . .	Byte	 00001A52 _DATA	
sAscii4aa  . . . . . . . . . . .	Byte	 00001BC1 _DATA	
sAscii4ab  . . . . . . . . . . .	Byte	 00001BDB _DATA	
sAscii4ac  . . . . . . . . . . .	Byte	 00001BFA _DATA	
sAscii4ad  . . . . . . . . . . .	Byte	 00001C19 _DATA	
sAscii4ae  . . . . . . . . . . .	Byte	 00001C38 _DATA	
sAscii4af  . . . . . . . . . . .	Byte	 00001C57 _DATA	
sAscii4ag  . . . . . . . . . . .	Byte	 00001C76 _DATA	
sAscii4ah  . . . . . . . . . . .	Byte	 00001C95 _DATA	
sAscii4ai  . . . . . . . . . . .	Byte	 00001CB4 _DATA	
sAscii4aj  . . . . . . . . . . .	Byte	 00001CD3 _DATA	
sAscii4ak  . . . . . . . . . . .	Byte	 00001CF2 _DATA	
sAscii4ba  . . . . . . . . . . .	Byte	 00002002 _DATA	
sAscii4bb  . . . . . . . . . . .	Byte	 00002015 _DATA	
sAscii4bc  . . . . . . . . . . .	Byte	 00002038 _DATA	
sAscii4bd  . . . . . . . . . . .	Byte	 00002068 _DATA	
sAscii4be  . . . . . . . . . . .	Byte	 00002095 _DATA	
sAscii4bf  . . . . . . . . . . .	Byte	 000020C6 _DATA	
sAscii4ca  . . . . . . . . . . .	Byte	 00002236 _DATA	
sAscii4cb  . . . . . . . . . . .	Byte	 00002260 _DATA	
sAscii4cc  . . . . . . . . . . .	Byte	 0000228B _DATA	
sAscii4cd  . . . . . . . . . . .	Byte	 000022B6 _DATA	
sAscii4ce  . . . . . . . . . . .	Byte	 000022E2 _DATA	
sAscii4cf  . . . . . . . . . . .	Byte	 0000230F _DATA	
sAscii4cg  . . . . . . . . . . .	Byte	 0000233D _DATA	
sAscii4ch  . . . . . . . . . . .	Byte	 0000236D _DATA	
sAscii4ci  . . . . . . . . . . .	Byte	 000023A0 _DATA	
sAscii4cj  . . . . . . . . . . .	Byte	 000023D4 _DATA	
sAscii4ck  . . . . . . . . . . .	Byte	 00002408 _DATA	
sAscii4cl  . . . . . . . . . . .	Byte	 0000242E _DATA	
sAscii4da  . . . . . . . . . . .	Byte	 00002683 _DATA	
sAscii4db  . . . . . . . . . . .	Byte	 0000269A _DATA	
sAscii4dc  . . . . . . . . . . .	Byte	 000026B6 _DATA	
sAscii4dd  . . . . . . . . . . .	Byte	 000026D1 _DATA	
sAscii4de  . . . . . . . . . . .	Byte	 000026EC _DATA	
sAscii4df  . . . . . . . . . . .	Byte	 0000270A _DATA	
sAscii4dg  . . . . . . . . . . .	Byte	 00002725 _DATA	
sAscii4dh  . . . . . . . . . . .	Byte	 00002740 _DATA	
sAscii4di  . . . . . . . . . . .	Byte	 0000275A _DATA	
sAscii4dj  . . . . . . . . . . .	Byte	 00002768 _DATA	
sAscii4dk  . . . . . . . . . . .	Byte	 00002776 _DATA	
sAscii4dl  . . . . . . . . . . .	Byte	 00002784 _DATA	
sAscii5ba  . . . . . . . . . . .	Byte	 00002CD7 _DATA	
sAscii5bb  . . . . . . . . . . .	Byte	 00002CF4 _DATA	
sAscii5bc  . . . . . . . . . . .	Byte	 00002D12 _DATA	
sAscii5bd  . . . . . . . . . . .	Byte	 00002D2E _DATA	
sAscii5be  . . . . . . . . . . .	Byte	 00002D4A _DATA	
sAscii5bf  . . . . . . . . . . .	Byte	 00002D67 _DATA	
sAscii5bg  . . . . . . . . . . .	Byte	 00002D86 _DATA	
sAscii5bh  . . . . . . . . . . .	Byte	 00002DA6 _DATA	
sAscii5bi  . . . . . . . . . . .	Byte	 00002DBD _DATA	
sAscii5ca  . . . . . . . . . . .	Byte	 0000321F _DATA	
sAscii5cb  . . . . . . . . . . .	Byte	 00003226 _DATA	
sAscii5cc  . . . . . . . . . . .	Byte	 0000322D _DATA	
sAscii5cd  . . . . . . . . . . .	Byte	 00003236 _DATA	
sAscii5ce  . . . . . . . . . . .	Byte	 00003240 _DATA	
sAscii5cf  . . . . . . . . . . .	Byte	 00003260 _DATA	
sAscii5cg  . . . . . . . . . . .	Byte	 00003280 _DATA	
sAscii5ch  . . . . . . . . . . .	Byte	 000032A0 _DATA	
sAscii5ci  . . . . . . . . . . .	Byte	 000032C0 _DATA	
sAscii5cj  . . . . . . . . . . .	Byte	 000032E0 _DATA	
sAscii5ea  . . . . . . . . . . .	Byte	 00003606 _DATA	
sAscii5eb  . . . . . . . . . . .	Byte	 0000361F _DATA	
sAscii5ec  . . . . . . . . . . .	Byte	 00003639 _DATA	
sAscii5ed  . . . . . . . . . . .	Byte	 00003655 _DATA	
sAscii5ee  . . . . . . . . . . .	Byte	 00003672 _DATA	
sAscii5ef  . . . . . . . . . . .	Byte	 00003690 _DATA	
sAscii5eg  . . . . . . . . . . .	Byte	 000036AE _DATA	
sAscii5eh  . . . . . . . . . . .	Byte	 000036CC _DATA	
sAscii5ei  . . . . . . . . . . .	Byte	 000036EA _DATA	
sAscii5ga  . . . . . . . . . . .	Byte	 00003AC5 _DATA	
sAscii5gb  . . . . . . . . . . .	Byte	 00003AD3 _DATA	
sAscii5gc  . . . . . . . . . . .	Byte	 00003AE2 _DATA	
sAscii5gd  . . . . . . . . . . .	Byte	 00003AF1 _DATA	
sAscii5ge  . . . . . . . . . . .	Byte	 00003B04 _DATA	
sAscii5gf  . . . . . . . . . . .	Byte	 00003B16 _DATA	
sAscii5gg  . . . . . . . . . . .	Byte	 00003B26 _DATA	
sAscii5gh  . . . . . . . . . . .	Byte	 00003B33 _DATA	
sAscii5gi  . . . . . . . . . . .	Byte	 00003B40 _DATA	
sAscii5gj  . . . . . . . . . . .	Byte	 00003B4C _DATA	
sAscii5gk  . . . . . . . . . . .	Byte	 00003B58 _DATA	
sAscii5gl  . . . . . . . . . . .	Byte	 00003B64 _DATA	
sAscii6aa  . . . . . . . . . . .	Byte	 00003CD6 _DATA	
sAscii6ab  . . . . . . . . . . .	Byte	 00003CE4 _DATA	
sAscii6ac  . . . . . . . . . . .	Byte	 00003CF3 _DATA	
sAscii6ad  . . . . . . . . . . .	Byte	 00003D02 _DATA	
sAscii6ae  . . . . . . . . . . .	Byte	 00003D11 _DATA	
sAscii6af  . . . . . . . . . . .	Byte	 00003D20 _DATA	
sAscii6ag  . . . . . . . . . . .	Byte	 00003D2F _DATA	
sAscii6ah  . . . . . . . . . . .	Byte	 00003D3D _DATA	
sAscii6ai  . . . . . . . . . . .	Byte	 00003D49 _DATA	
sAscii6aj  . . . . . . . . . . .	Byte	 00003D56 _DATA	
sAscii6ak  . . . . . . . . . . .	Byte	 00003D63 _DATA	
sAscii6al  . . . . . . . . . . .	Byte	 00003D6F _DATA	
sAscii6ba  . . . . . . . . . . .	Byte	 00003E3B _DATA	
sAscii6bb  . . . . . . . . . . .	Byte	 00003E6A _DATA	
sAscii6bc  . . . . . . . . . . .	Byte	 00003E9D _DATA	
sAscii6bd  . . . . . . . . . . .	Byte	 00003ED0 _DATA	
sAscii6be  . . . . . . . . . . .	Byte	 00003F03 _DATA	
sAscii6bf  . . . . . . . . . . .	Byte	 00003F35 _DATA	
sAscii6bg  . . . . . . . . . . .	Byte	 00003F66 _DATA	
sAscii6bh  . . . . . . . . . . .	Byte	 00003F95 _DATA	
sAscii6bi  . . . . . . . . . . .	Byte	 00003FAC _DATA	
sAscii6bj  . . . . . . . . . . .	Byte	 00003FDC _DATA	
sAscii6bk  . . . . . . . . . . .	Byte	 0000400B _DATA	
sAscii6bl  . . . . . . . . . . .	Byte	 00004039 _DATA	
sAscii6bm  . . . . . . . . . . .	Byte	 00004069 _DATA	
sAscii6bn  . . . . . . . . . . .	Byte	 0000409A _DATA	
sAscii6bo  . . . . . . . . . . .	Byte	 000040CC _DATA	
sAscii7aa  . . . . . . . . . . .	Byte	 00004226 _DATA	
sAscii7ab  . . . . . . . . . . .	Byte	 00004232 _DATA	
sAscii7ac  . . . . . . . . . . .	Byte	 0000423E _DATA	
sAscii7ad  . . . . . . . . . . .	Byte	 0000424A _DATA	
sAscii7ae  . . . . . . . . . . .	Byte	 00004259 _DATA	
sAscii7af  . . . . . . . . . . .	Byte	 00004261 _DATA	
sAscii7ag  . . . . . . . . . . .	Byte	 00004271 _DATA	
sAscii7ah  . . . . . . . . . . .	Byte	 00004281 _DATA	
sAscii7ba  . . . . . . . . . . .	Byte	 00004311 _DATA	
sAscii7bb  . . . . . . . . . . .	Byte	 0000431F _DATA	
sAscii7bc  . . . . . . . . . . .	Byte	 0000432E _DATA	
sAscii7bd  . . . . . . . . . . .	Byte	 0000433E _DATA	
sAscii7be  . . . . . . . . . . .	Byte	 0000434E _DATA	
sAscii7bf  . . . . . . . . . . .	Byte	 0000435E _DATA	
sAuthor  . . . . . . . . . . . .	Byte	 00000021 _DATA	
sBadInput  . . . . . . . . . . .	Byte	 00000065 _DATA	
sDecision  . . . . . . . . . . .	Byte	 0000008C _DATA	
sGoodbye . . . . . . . . . . . .	Byte	 00000082 _DATA	
sGreetings . . . . . . . . . . .	Byte	 0000007A _DATA	
sName  . . . . . . . . . . . . .	Byte	 00004467 _DATA	
sPrompt1a  . . . . . . . . . . .	Byte	 000004D9 _DATA	
sPrompt1b  . . . . . . . . . . .	Byte	 000004F0 _DATA	
sPrompt2aa . . . . . . . . . . .	Byte	 0000087F _DATA	
sPrompt2ab . . . . . . . . . . .	Byte	 000008A4 _DATA	
sPrompt2ba . . . . . . . . . . .	Byte	 00000E82 _DATA	
sPrompt2bb . . . . . . . . . . .	Byte	 00000E9D _DATA	
sPrompt3aa . . . . . . . . . . .	Byte	 000011C6 _DATA	
sPrompt3ab . . . . . . . . . . .	Byte	 000011DF _DATA	
sPrompt3ba . . . . . . . . . . .	Byte	 00001594 _DATA	
sPrompt3bb . . . . . . . . . . .	Byte	 000015D1 _DATA	
sPrompt3ca . . . . . . . . . . .	Byte	 00001920 _DATA	
sPrompt3cb . . . . . . . . . . .	Byte	 00001940 _DATA	
sPrompt3da . . . . . . . . . . .	Byte	 00001B81 _DATA	
sPrompt3db . . . . . . . . . . .	Byte	 00001BA1 _DATA	
sPrompt4aa . . . . . . . . . . .	Byte	 00001FAA _DATA	
sPrompt4ab . . . . . . . . . . .	Byte	 00001FE1 _DATA	
sPrompt4ba . . . . . . . . . . .	Byte	 000021DA _DATA	
sPrompt4bb . . . . . . . . . . .	Byte	 000021F2 _DATA	
sPrompt4ca . . . . . . . . . . .	Byte	 0000265F _DATA	
sPrompt4cb . . . . . . . . . . .	Byte	 0000266F _DATA	
sPrompt4da . . . . . . . . . . .	Byte	 000029BC _DATA	
sPrompt4db . . . . . . . . . . .	Byte	 000029D4 _DATA	
sPrompt4ea . . . . . . . . . . .	Byte	 00002B3D _DATA	
sPrompt4eb . . . . . . . . . . .	Byte	 00002B61 _DATA	
sPrompt5ba . . . . . . . . . . .	Byte	 000031A7 _DATA	
sPrompt5bb . . . . . . . . . . .	Byte	 000031EB _DATA	
sPrompt5ca . . . . . . . . . . .	Byte	 0000349F _DATA	
sPrompt5cb . . . . . . . . . . .	Byte	 000034C8 _DATA	
sPrompt5da . . . . . . . . . . .	Byte	 000035BC _DATA	
sPrompt5db . . . . . . . . . . .	Byte	 000035F7 _DATA	
sPromptForName . . . . . . . . .	Byte	 0000004A _DATA	
sStory1a . . . . . . . . . . . .	Byte	 00000169 _DATA	
sStory1b . . . . . . . . . . . .	Byte	 000001C1 _DATA	
sStory1c . . . . . . . . . . . .	Byte	 0000021D _DATA	
sStory1d . . . . . . . . . . . .	Byte	 0000027A _DATA	
sStory1e . . . . . . . . . . . .	Byte	 00000302 _DATA	
sStory1f . . . . . . . . . . . .	Byte	 00000383 _DATA	
sStory1g . . . . . . . . . . . .	Byte	 000003D9 _DATA	
sStory1h . . . . . . . . . . . .	Byte	 00000435 _DATA	
sStory1i . . . . . . . . . . . .	Byte	 0000047B _DATA	
sStory2aa  . . . . . . . . . . .	Byte	 0000060A _DATA	
sStory2ab  . . . . . . . . . . .	Byte	 0000067C _DATA	
sStory2ac  . . . . . . . . . . .	Byte	 000006F6 _DATA	
sStory2ad  . . . . . . . . . . .	Byte	 0000077D _DATA	
sStory2ae  . . . . . . . . . . .	Byte	 000007FF _DATA	
sStory2ba  . . . . . . . . . . .	Byte	 00000A21 _DATA	
sStory2bb  . . . . . . . . . . .	Byte	 00000A54 _DATA	
sStory2bc  . . . . . . . . . . .	Byte	 00000A98 _DATA	
sStory2bd  . . . . . . . . . . .	Byte	 00000B70 _DATA	
sStory2be  . . . . . . . . . . .	Byte	 00000BEC _DATA	
sStory2bf  . . . . . . . . . . .	Byte	 00000C35 _DATA	
sStory2bg  . . . . . . . . . . .	Byte	 00000C84 _DATA	
sStory2bh  . . . . . . . . . . .	Byte	 00000D22 _DATA	
sStory2bi  . . . . . . . . . . .	Byte	 00000D61 _DATA	
sStory2bj  . . . . . . . . . . .	Byte	 00000DDD _DATA	
sStory2bk  . . . . . . . . . . .	Byte	 00000E46 _DATA	
sStory3aa  . . . . . . . . . . .	Byte	 00000F25 _DATA	
sStory3ab  . . . . . . . . . . .	Byte	 00000FA8 _DATA	
sStory3ac  . . . . . . . . . . .	Byte	 00001042 _DATA	
sStory3ad  . . . . . . . . . . .	Byte	 0000107C _DATA	
sStory3ae  . . . . . . . . . . .	Byte	 000010D3 _DATA	
sStory3af  . . . . . . . . . . .	Byte	 00001124 _DATA	
sStory3ag  . . . . . . . . . . .	Byte	 0000115F _DATA	
sStory3ah  . . . . . . . . . . .	Byte	 00001182 _DATA	
sStory3ba  . . . . . . . . . . .	Byte	 000011F6 _DATA	
sStory3bb  . . . . . . . . . . .	Byte	 00001251 _DATA	
sStory3bc  . . . . . . . . . . .	Byte	 00001289 _DATA	
sStory3bd  . . . . . . . . . . .	Byte	 000012CA _DATA	
sStory3be  . . . . . . . . . . .	Byte	 00001330 _DATA	
sStory3bf  . . . . . . . . . . .	Byte	 00001386 _DATA	
sStory3bg  . . . . . . . . . . .	Byte	 000013E9 _DATA	
sStory3bh  . . . . . . . . . . .	Byte	 00001462 _DATA	
sStory3bi  . . . . . . . . . . .	Byte	 000014CA _DATA	
sStory3bj  . . . . . . . . . . .	Byte	 0000154A _DATA	
sStory3ca  . . . . . . . . . . .	Byte	 000016BA _DATA	
sStory3cb  . . . . . . . . . . .	Byte	 0000171C _DATA	
sStory3cc  . . . . . . . . . . .	Byte	 0000176B _DATA	
sStory3cd  . . . . . . . . . . .	Byte	 000017D3 _DATA	
sStory3ce  . . . . . . . . . . .	Byte	 0000182B _DATA	
sStory3cf  . . . . . . . . . . .	Byte	 00001848 _DATA	
sStory3cg  . . . . . . . . . . .	Byte	 0000189F _DATA	
sStory3ch  . . . . . . . . . . .	Byte	 000018BB _DATA	
sStory3ci  . . . . . . . . . . .	Byte	 000018D0 _DATA	
sStory3da  . . . . . . . . . . .	Byte	 00001A68 _DATA	
sStory3db  . . . . . . . . . . .	Byte	 00001AAA _DATA	
sStory3dc  . . . . . . . . . . .	Byte	 00001B0D _DATA	
sStory3dd  . . . . . . . . . . .	Byte	 00001B36 _DATA	
sStory3de  . . . . . . . . . . .	Byte	 00001B5A _DATA	
sStory4aa  . . . . . . . . . . .	Byte	 00001D11 _DATA	
sStory4ab  . . . . . . . . . . .	Byte	 00001D5F _DATA	
sStory4ac  . . . . . . . . . . .	Byte	 00001DAB _DATA	
sStory4ad  . . . . . . . . . . .	Byte	 00001DD7 _DATA	
sStory4ae  . . . . . . . . . . .	Byte	 00001E28 _DATA	
sStory4af  . . . . . . . . . . .	Byte	 00001E66 _DATA	
sStory4ag  . . . . . . . . . . .	Byte	 00001ECA _DATA	
sStory4ah  . . . . . . . . . . .	Byte	 00001EF7 _DATA	
sStory4ai  . . . . . . . . . . .	Byte	 00001F4E _DATA	
sStory4aj  . . . . . . . . . . .	Byte	 00001F7B _DATA	
sStory4ba  . . . . . . . . . . .	Byte	 000020F8 _DATA	
sStory4bb  . . . . . . . . . . .	Byte	 0000211D _DATA	
sStory4bc  . . . . . . . . . . .	Byte	 00002169 _DATA	
sStory4bd  . . . . . . . . . . .	Byte	 00002184 _DATA	
sStory4be  . . . . . . . . . . .	Byte	 000021BA _DATA	
sStory4ca  . . . . . . . . . . .	Byte	 00002453 _DATA	
sStory4cb  . . . . . . . . . . .	Byte	 00002497 _DATA	
sStory4cc  . . . . . . . . . . .	Byte	 000024EB _DATA	
sStory4cd  . . . . . . . . . . .	Byte	 00002534 _DATA	
sStory4ce  . . . . . . . . . . .	Byte	 0000259C _DATA	
sStory4cf  . . . . . . . . . . .	Byte	 000025DB _DATA	
sStory4cg  . . . . . . . . . . .	Byte	 00002611 _DATA	
sStory4da  . . . . . . . . . . .	Byte	 00002792 _DATA	
sStory4db  . . . . . . . . . . .	Byte	 000027D9 _DATA	
sStory4dc  . . . . . . . . . . .	Byte	 00002814 _DATA	
sStory4dd  . . . . . . . . . . .	Byte	 0000283D _DATA	
sStory4de  . . . . . . . . . . .	Byte	 000028CB _DATA	
sStory4df  . . . . . . . . . . .	Byte	 00002911 _DATA	
sStory4dg  . . . . . . . . . . .	Byte	 00002977 _DATA	
sStory4ea  . . . . . . . . . . .	Byte	 000029F3 _DATA	
sStory4eb  . . . . . . . . . . .	Byte	 00002A1A _DATA	
sStory4ec  . . . . . . . . . . .	Byte	 00002A72 _DATA	
sStory4ed  . . . . . . . . . . .	Byte	 00002AA1 _DATA	
sStory4ee  . . . . . . . . . . .	Byte	 00002AB8 _DATA	
sStory4ef  . . . . . . . . . . .	Byte	 00002AD0 _DATA	
sStory4eg  . . . . . . . . . . .	Byte	 00002AEA _DATA	
sStory4eh  . . . . . . . . . . .	Byte	 00002B11 _DATA	
sStory5aa  . . . . . . . . . . .	Byte	 00002B84 _DATA	
sStory5ab  . . . . . . . . . . .	Byte	 00002BDA _DATA	
sStory5ac  . . . . . . . . . . .	Byte	 00002C11 _DATA	
sStory5ad  . . . . . . . . . . .	Byte	 00002C57 _DATA	
sStory5ae  . . . . . . . . . . .	Byte	 00002CA2 _DATA	
sStory5ba  . . . . . . . . . . .	Byte	 00002DD4 _DATA	
sStory5bb  . . . . . . . . . . .	Byte	 00002E0A _DATA	
sStory5bc  . . . . . . . . . . .	Byte	 00002E2C _DATA	
sStory5bd  . . . . . . . . . . .	Byte	 00002E67 _DATA	
sStory5be  . . . . . . . . . . .	Byte	 00002E9C _DATA	
sStory5bf  . . . . . . . . . . .	Byte	 00002EBD _DATA	
sStory5bg  . . . . . . . . . . .	Byte	 00002EDF _DATA	
sStory5bh  . . . . . . . . . . .	Byte	 00002F1D _DATA	
sStory5bi  . . . . . . . . . . .	Byte	 00002F4B _DATA	
sStory5bj  . . . . . . . . . . .	Byte	 00002F79 _DATA	
sStory5bk  . . . . . . . . . . .	Byte	 00002FCF _DATA	
sStory5bl  . . . . . . . . . . .	Byte	 0000301D _DATA	
sStory5bm  . . . . . . . . . . .	Byte	 0000306E _DATA	
sStory5bn  . . . . . . . . . . .	Byte	 00003098 _DATA	
sStory5bo  . . . . . . . . . . .	Byte	 000030B1 _DATA	
sStory5bp  . . . . . . . . . . .	Byte	 000030CF _DATA	
sStory5bq  . . . . . . . . . . .	Byte	 00003112 _DATA	
sStory5br  . . . . . . . . . . .	Byte	 00003123 _DATA	
sStory5bs  . . . . . . . . . . .	Byte	 00003131 _DATA	
sStory5bt  . . . . . . . . . . .	Byte	 00003156 _DATA	
sStory5ca  . . . . . . . . . . .	Byte	 000032EA _DATA	
sStory5cb  . . . . . . . . . . .	Byte	 00003333 _DATA	
sStory5cc  . . . . . . . . . . .	Byte	 0000335A _DATA	
sStory5cd  . . . . . . . . . . .	Byte	 000033B1 _DATA	
sStory5ce  . . . . . . . . . . .	Byte	 000033C8 _DATA	
sStory5cf  . . . . . . . . . . .	Byte	 000033EF _DATA	
sStory5cg  . . . . . . . . . . .	Byte	 00003403 _DATA	
sStory5ch  . . . . . . . . . . .	Byte	 00003426 _DATA	
sStory5ci  . . . . . . . . . . .	Byte	 0000343E _DATA	
sStory5cj  . . . . . . . . . . .	Byte	 00003457 _DATA	
sStory5da  . . . . . . . . . . .	Byte	 000034D8 _DATA	
sStory5db  . . . . . . . . . . .	Byte	 0000352A _DATA	
sStory5dc  . . . . . . . . . . .	Byte	 0000356E _DATA	
sStory5dd  . . . . . . . . . . .	Byte	 00003587 _DATA	
sStory5ea  . . . . . . . . . . .	Byte	 00003708 _DATA	
sStory5eb  . . . . . . . . . . .	Byte	 00003758 _DATA	
sStory5ec  . . . . . . . . . . .	Byte	 00003770 _DATA	
sStory5ed  . . . . . . . . . . .	Byte	 00003789 _DATA	
sStory5ee  . . . . . . . . . . .	Byte	 000037DF _DATA	
sStory5ef  . . . . . . . . . . .	Byte	 00003840 _DATA	
sStory5eg  . . . . . . . . . . .	Byte	 0000388D _DATA	
sStory5eh  . . . . . . . . . . .	Byte	 000038B0 _DATA	
sStory5ei  . . . . . . . . . . .	Byte	 000038C3 _DATA	
sStory5fa  . . . . . . . . . . .	Byte	 000038F3 _DATA	
sStory5fb  . . . . . . . . . . .	Byte	 00003932 _DATA	
sStory5fc  . . . . . . . . . . .	Byte	 0000396A _DATA	
sStory5fd  . . . . . . . . . . .	Byte	 00003994 _DATA	
sStory5fe  . . . . . . . . . . .	Byte	 000039DC _DATA	
sStory5ff  . . . . . . . . . . .	Byte	 00003A15 _DATA	
sStory5fg  . . . . . . . . . . .	Byte	 00003A5E _DATA	
sStory5fh  . . . . . . . . . . .	Byte	 00003A77 _DATA	
sStory5fi  . . . . . . . . . . .	Byte	 00003A96 _DATA	
sStory5ga  . . . . . . . . . . .	Byte	 00003B75 _DATA	
sStory5gb  . . . . . . . . . . .	Byte	 00003BBB _DATA	
sStory5gc  . . . . . . . . . . .	Byte	 00003BE5 _DATA	
sStory5gd  . . . . . . . . . . .	Byte	 00003BF6 _DATA	
sStory5ha  . . . . . . . . . . .	Byte	 00003C22 _DATA	
sStory5hb  . . . . . . . . . . .	Byte	 00003C63 _DATA	
sStory5hc  . . . . . . . . . . .	Byte	 00003C7E _DATA	
sStory5hd  . . . . . . . . . . .	Byte	 00003CA1 _DATA	
sStory5he  . . . . . . . . . . .	Byte	 00003CBE _DATA	
sStory6aa  . . . . . . . . . . .	Byte	 00003D7B _DATA	
sStory6ab  . . . . . . . . . . .	Byte	 00003D9C _DATA	
sStory6ac  . . . . . . . . . . .	Byte	 00003DAE _DATA	
sStory6ad  . . . . . . . . . . .	Byte	 00003DBF _DATA	
sStory6ae  . . . . . . . . . . .	Byte	 00003DE7 _DATA	
sStory6af  . . . . . . . . . . .	Byte	 00003E05 _DATA	
sStory6ba  . . . . . . . . . . .	Byte	 000040FB _DATA	
sStory6bb  . . . . . . . . . . .	Byte	 00004137 _DATA	
sStory6bc  . . . . . . . . . . .	Byte	 0000417E _DATA	
sStory6bd  . . . . . . . . . . .	Byte	 0000419F _DATA	
sStory6be  . . . . . . . . . . .	Byte	 000041BF _DATA	
sStory6bf  . . . . . . . . . . .	Byte	 000041EB _DATA	
sStory7aa  . . . . . . . . . . .	Byte	 00004291 _DATA	
sStory7ab  . . . . . . . . . . .	Byte	 000042BC _DATA	
sStory7ac  . . . . . . . . . . .	Byte	 000042D9 _DATA	
sStory7ad  . . . . . . . . . . .	Byte	 00004309 _DATA	
sStory7ba  . . . . . . . . . . .	Byte	 0000436E _DATA	
sStory7bb  . . . . . . . . . . .	Byte	 000043A1 _DATA	
sStory7bc  . . . . . . . . . . .	Byte	 000043D5 _DATA	
sStory7bd  . . . . . . . . . . .	Byte	 00004420 _DATA	
sStory7be  . . . . . . . . . . .	Byte	 0000445C _DATA	
sTitle . . . . . . . . . . . . .	Byte	 00000000 _DATA	
white  . . . . . . . . . . . . .	Number	 0000000Fh   
wsprintf . . . . . . . . . . . .	Text   	 wsprintfA
yellow . . . . . . . . . . . . .	Number	 0000000Eh   

	   0 Warnings
	   0 Errors
